TN:
SF:/home/runner/work/SMLP/SMLP/libs/libsmlp/include/ActivationFunctions.h
FN:19,_ZNK7sigmoidMUlT_E_clIfEEDaS_
FN:20,_ZNK17sigmoidDerivativeMUlT_E_clIfEEDaS_
FN:30,_ZNK8tanhFuncMUlT_E_clIfEEDaS_
FN:31,_ZNK14tanhDerivativeMUlT_E_clIfEEDaS_
FN:44,_ZNK4reluMUlT_E_clIfEEDaS_
FN:45,_ZNK14reluDerivativeMUlT_E_clIfEEDaS_
FN:52,_ZNK9leakyReluMUlT_E_clIfEEDaS_
FN:53,_ZNK19leakyReluDerivativeMUlT_E_clIfEEDaS_
FN:61,_ZNK14parametricReluMUlT_T0_E_clIffEEDaS_S0_
FN:64,_ZNK24parametricReluDerivativeMUlT_T0_E_clIffEEDaS_S0_
FN:76,_ZNK3eluMUlT_T0_E_clIffEEDaS_S0_
FN:79,_ZNK13eluDerivativeMUlT_T0_E_clIffEEDaS_S0_
FNDA:4,_ZNK13eluDerivativeMUlT_T0_E_clIffEEDaS_S0_
FNDA:748,_ZNK7sigmoidMUlT_E_clIfEEDaS_
FNDA:240,_ZNK17sigmoidDerivativeMUlT_E_clIfEEDaS_
FNDA:0,_ZNK24parametricReluDerivativeMUlT_T0_E_clIffEEDaS_S0_
FNDA:0,_ZNK4reluMUlT_E_clIfEEDaS_
FNDA:0,_ZNK14parametricReluMUlT_T0_E_clIffEEDaS_S0_
FNDA:6,_ZNK8tanhFuncMUlT_E_clIfEEDaS_
FNDA:6,_ZNK14tanhDerivativeMUlT_E_clIfEEDaS_
FNDA:0,_ZNK14reluDerivativeMUlT_E_clIfEEDaS_
FNDA:0,_ZNK19leakyReluDerivativeMUlT_E_clIfEEDaS_
FNDA:6,_ZNK3eluMUlT_T0_E_clIffEEDaS_S0_
FNDA:0,_ZNK9leakyReluMUlT_E_clIfEEDaS_
FNF:12
FNH:6
DA:19,748
DA:20,240
DA:21,240
DA:22,240
DA:30,6
DA:31,6
DA:32,6
DA:33,6
DA:44,0
DA:45,0
DA:52,0
DA:53,0
DA:61,0
DA:62,0
DA:64,0
DA:65,0
DA:76,6
DA:77,6
DA:79,4
DA:80,4
LF:20
LH:12
end_of_record
TN:
SF:/home/runner/work/SMLP/SMLP/libs/libsmlp/include/Common.h
FN:40,_ZN6Common10getModeStrB5cxx11E5EMode
FN:49,_ZN6Common20getPredictiveModeStrB5cxx11E15EPredictiveMode
FN:58,_ZN6Common16getActivationStrB5cxx11E19EActivationFunction
FNDA:6,_ZN6Common16getActivationStrB5cxx11E19EActivationFunction
FNDA:4,_ZN6Common20getPredictiveModeStrB5cxx11E15EPredictiveMode
FNDA:5,_ZN6Common10getModeStrB5cxx11E5EMode
FNF:3
FNH:3
DA:40,5
DA:41,15
DA:42,15
DA:43,5
DA:46,0
DA:49,4
DA:50,10
DA:51,10
DA:52,4
DA:55,0
DA:58,6
DA:59,21
DA:60,21
DA:61,6
DA:64,0
LF:15
LH:12
end_of_record
TN:
SF:/home/runner/work/SMLP/SMLP/libs/libsmlp/include/DataFileParser.h
FN:28,_ZN14DataFileParserC2ERKNSt7__cxx1112basic_stringIcSt11char_traitsIcESaIcEEE
FN:57,_ZN14DataFileParser20getTrainingRatioLineEfmb
FN:74,_ZN14DataFileParser9countLineEv
FNDA:6,_ZN14DataFileParser20getTrainingRatioLineEfmb
FNDA:7,_ZN14DataFileParser9countLineEv
FNDA:30,_ZN14DataFileParserC2ERKNSt7__cxx1112basic_stringIcSt11char_traitsIcESaIcEEE
FNF:3
FNH:3
DA:28,30
DA:57,6
DA:59,6
DA:60,0
DA:62,6
DA:63,6
DA:65,6
DA:66,6
DA:74,7
DA:75,7
DA:76,7
DA:77,7
DA:78,7
DA:79,7
DA:80,7
LF:15
LH:14
end_of_record
TN:
SF:/home/runner/work/SMLP/SMLP/libs/libsmlp/include/HiddenLayer.h
FN:21,_ZN11HiddenLayerC2Ev
FN:23,_ZN11HiddenLayer18forwardPropagationEv
FN:39,_ZN11HiddenLayer19backwardPropagationEv
FN:55,_ZN11HiddenLayer13updateWeightsEf
FNDA:14,_ZN11HiddenLayerC2Ev
FNDA:24,_ZN11HiddenLayer19backwardPropagationEv
FNDA:44,_ZN11HiddenLayer18forwardPropagationEv
FNDA:24,_ZN11HiddenLayer13updateWeightsEf
FNF:4
FNH:4
DA:21,14
DA:23,44
DA:24,44
DA:25,0
DA:28,508
DA:29,464
DA:30,9744
DA:31,9280
DA:32,9280
DA:35,464
DA:39,24
DA:40,24
DA:41,0
DA:45,264
DA:46,240
DA:47,480
DA:48,240
DA:50,240
DA:51,240
DA:55,24
DA:56,24
DA:57,0
DA:59,264
DA:60,5040
DA:62,4800
DA:64,4800
LF:26
LH:23
end_of_record
TN:
SF:/home/runner/work/SMLP/SMLP/libs/libsmlp/include/InputLayer.h
FN:22,_ZN10InputLayerC2Ev
FN:23,_ZN10InputLayer18forwardPropagationEv
FN:27,_ZN10InputLayer19backwardPropagationEv
FN:31,_ZN10InputLayer13updateWeightsEf
FN:35,_ZN10InputLayer14setInputValuesERKSt6vectorIfSaIfEE
FNDA:24,_ZN10InputLayer19backwardPropagationEv
FNDA:44,_ZN10InputLayer18forwardPropagationEv
FNDA:24,_ZN10InputLayer13updateWeightsEf
FNDA:12,_ZN10InputLayerC2Ev
FNDA:44,_ZN10InputLayer14setInputValuesERKSt6vectorIfSaIfEE
FNF:5
FNH:5
DA:22,12
DA:23,44
DA:25,44
DA:27,24
DA:29,24
DA:31,24
DA:33,24
DA:35,44
DA:36,44
DA:37,0
DA:39,924
DA:40,880
DA:42,44
LF:13
LH:12
end_of_record
TN:
SF:/home/runner/work/SMLP/SMLP/libs/libsmlp/include/Layer.h
FN:29,_ZN5LayerC2E9LayerType
FN:37,_ZN5LayerD2Ev
FN:37,_ZN5LayerD0Ev
FN:59,_ZNK5Layer12layerTypeStrB5cxx11Ev
FN:68,_ZN5Layer21setActivationFunctionERKSt8functionIFffEES4_
FNDA:3,_ZNK5Layer12layerTypeStrB5cxx11Ev
FNDA:0,_ZN5LayerD0Ev
FNDA:29,_ZN5LayerD2Ev
FNDA:38,_ZN5LayerC2E9LayerType
FNDA:31,_ZN5Layer21setActivationFunctionERKSt8functionIFffEES4_
FNF:5
FNH:4
DA:29,38
DA:37,29
DA:59,3
DA:60,6
DA:61,6
DA:62,3
DA:65,0
DA:68,31
DA:70,180
DA:71,149
DA:72,149
DA:74,31
LF:12
LH:11
end_of_record
TN:
SF:/home/runner/work/SMLP/SMLP/libs/libsmlp/include/Network.h
FN:32,_ZN7NetworkD2Ev
FN:42,_ZN7NetworkC2Ev
FN:50,_ZN7NetworkC2ERK17NetworkParameters
FN:65,_ZN7Network18forwardPropagationERKSt6vectorIfSaIfEE
FN:79,_ZN7Network19backwardPropagationERKSt6vectorIfSaIfEE
FN:90,_ZNK7Network13updateWeightsEv
FN:96,_ZN7Network10bindLayersEv
FN:107,_ZNK7Network17initializeWeightsEv
FN:117,_ZN7Network16initializeLayersEv
FN:140,_ZNK7Network21SetActivationFunctionEP5Layer19EActivationFunctionf
FN:146,_ZZNK7Network21SetActivationFunctionEP5Layer19EActivationFunctionfENKUlT_E_clIfEEDaS3_
FN:147,_ZZNK7Network21SetActivationFunctionEP5Layer19EActivationFunctionfENKUlT_E0_clIfEEDaS3_
FN:156,_ZZNK7Network21SetActivationFunctionEP5Layer19EActivationFunctionfENKUlT_E1_clIfEEDaS3_
FN:159,_ZZNK7Network21SetActivationFunctionEP5Layer19EActivationFunctionfENKUlT_E2_clIfEEDaS3_
FNDA:44,_ZN7Network18forwardPropagationERKSt6vectorIfSaIfEE
FNDA:10,_ZNK7Network17initializeWeightsEv
FNDA:0,_ZZNK7Network21SetActivationFunctionEP5Layer19EActivationFunctionfENKUlT_E1_clIfEEDaS3_
FNDA:0,_ZZNK7Network21SetActivationFunctionEP5Layer19EActivationFunctionfENKUlT_E2_clIfEEDaS3_
FNDA:10,_ZN7NetworkC2ERK17NetworkParameters
FNDA:31,_ZNK7Network21SetActivationFunctionEP5Layer19EActivationFunctionf
FNDA:5,_ZN7NetworkC2Ev
FNDA:12,_ZN7NetworkD2Ev
FNDA:4,_ZZNK7Network21SetActivationFunctionEP5Layer19EActivationFunctionfENKUlT_E0_clIfEEDaS3_
FNDA:24,_ZNK7Network13updateWeightsEv
FNDA:12,_ZN7Network10bindLayersEv
FNDA:6,_ZZNK7Network21SetActivationFunctionEP5Layer19EActivationFunctionfENKUlT_E_clIfEEDaS3_
FNDA:10,_ZN7Network16initializeLayersEv
FNDA:24,_ZN7Network19backwardPropagationERKSt6vectorIfSaIfEE
FNF:14
FNH:12
DA:32,12
DA:33,40
DA:34,28
DA:36,12
DA:42,5
DA:50,10
DA:51,10
DA:52,10
DA:65,44
DA:66,44
DA:67,176
DA:68,132
DA:70,44
DA:79,24
DA:80,24
DA:81,96
DA:82,72
DA:84,24
DA:90,24
DA:91,96
DA:92,72
DA:94,24
DA:96,12
DA:97,49
DA:98,37
DA:99,25
DA:101,37
DA:102,25
DA:105,12
DA:107,10
DA:108,41
DA:109,31
DA:110,132
DA:111,111
DA:115,10
DA:117,10
DA:118,10
DA:119,10
DA:120,10
DA:122,21
DA:123,11
DA:124,11
DA:125,11
DA:127,11
DA:130,10
DA:131,10
DA:132,10
DA:134,10
DA:136,10
DA:137,10
DA:138,10
DA:140,31
DA:143,31
DA:144,1
DA:145,1
DA:146,6
DA:147,4
DA:148,4
DA:150,1
DA:151,1
DA:152,1
DA:153,1
DA:154,1
DA:155,1
DA:156,0
DA:157,0
DA:159,0
DA:160,0
DA:162,1
DA:163,1
DA:164,1
DA:165,1
DA:166,26
DA:167,26
DA:168,26
DA:169,1
DA:170,1
DA:171,1
DA:172,0
DA:173,0
DA:175,31
LF:81
LH:75
end_of_record
TN:
SF:/home/runner/work/SMLP/SMLP/libs/libsmlp/include/NetworkImportExportJSON.h
FN:39,_ZN23NetworkImportExportJSON11importModelERK13AppParameters
FN:164,_ZNK23NetworkImportExportJSON16createJsonNeuronB5cxx11ERK6Neuron9LayerType
FN:182,_ZNK23NetworkImportExportJSON11exportModelEPK7NetworkRK13AppParameters
FNDA:3,_ZN23NetworkImportExportJSON11importModelERK13AppParameters
FNDA:1,_ZNK23NetworkImportExportJSON11exportModelEPK7NetworkRK13AppParameters
FNDA:33,_ZNK23NetworkImportExportJSON16createJsonNeuronB5cxx11ERK6Neuron9LayerType
FNF:3
FNH:3
DA:39,3
DA:40,3
DA:41,3
DA:43,3
DA:44,0
DA:47,6
DA:48,6
DA:49,3
DA:52,6
DA:53,4
DA:55,3
DA:56,1
DA:57,2
DA:60,2
DA:61,0
DA:62,0
DA:63,0
DA:65,2
DA:68,2
DA:70,4
DA:71,2
DA:73,0
DA:74,0
DA:78,2
DA:79,2
DA:80,2
DA:81,2
DA:82,2
DA:83,2
DA:84,2
DA:85,2
DA:86,2
DA:87,2
DA:88,2
DA:89,2
DA:90,2
DA:91,2
DA:93,8
DA:95,12
DA:96,6
DA:99,6
DA:100,6
DA:101,2
DA:102,2
DA:103,2
DA:104,2
DA:105,2
DA:106,2
DA:107,2
DA:108,2
DA:109,2
DA:110,0
DA:111,0
DA:115,72
DA:116,132
DA:117,66
DA:118,66
DA:122,6
DA:123,2
DA:124,2
DA:125,2
DA:126,2
DA:129,2
DA:130,2
DA:131,2
DA:134,2
DA:135,0
DA:136,0
DA:140,6
DA:143,2
DA:144,0
DA:147,2
DA:148,0
DA:151,2
DA:153,2
DA:155,4
DA:157,0
DA:158,0
DA:159,0
DA:160,0
DA:164,33
DA:165,198
DA:167,33
DA:168,265
DA:169,252
DA:173,33
DA:182,1
DA:184,2
DA:185,1
DA:188,4
DA:189,3
DA:190,36
DA:192,36
DA:193,66
DA:194,66
DA:197,3
DA:201,1
DA:202,1
DA:203,2
DA:204,1
DA:205,2
DA:206,1
DA:207,2
DA:208,1
DA:209,2
DA:210,1
DA:211,2
DA:212,1
DA:213,2
DA:214,1
DA:215,2
DA:216,1
DA:217,2
DA:221,2
DA:222,1
DA:223,1
DA:224,1
LF:117
LH:101
end_of_record
TN:
SF:/home/runner/work/SMLP/SMLP/libs/libsmlp/include/Neuron.h
FN:37,_ZN6NeuronC2Ev
FN:45,_ZN6Neuron11initWeightsEm
FNDA:111,_ZN6Neuron11initWeightsEm
FNDA:369,_ZN6NeuronC2Ev
FNF:2
FNH:2
DA:37,369
DA:45,111
DA:46,111
DA:49,222
DA:50,2130
DA:51,2019
DA:52,2019
DA:53,2019
DA:54,2019
DA:56,111
LF:10
LH:10
end_of_record
TN:
SF:/home/runner/work/SMLP/SMLP/libs/libsmlp/include/OutputLayer.h
FN:24,_ZN11OutputLayerC2Ev
FN:25,_ZN11OutputLayer18forwardPropagationEv
FN:41,_ZN11OutputLayer19backwardPropagationEv
FN:45,_ZN11OutputLayer13updateWeightsEf
FN:59,_ZN11OutputLayer13computeErrorsERKSt6vectorIfSaIfEE
FN:68,_ZN11OutputLayer15getOutputValuesEv
FN:69,_ZZN11OutputLayer15getOutputValuesEvENKUlRK6NeuronE_clES2_
FNDA:44,_ZN11OutputLayer15getOutputValuesEv
FNDA:44,_ZN11OutputLayer18forwardPropagationEv
FNDA:24,_ZN11OutputLayer13updateWeightsEf
FNDA:44,_ZZN11OutputLayer15getOutputValuesEvENKUlRK6NeuronE_clES2_
FNDA:12,_ZN11OutputLayerC2Ev
FNDA:24,_ZN11OutputLayer13computeErrorsERKSt6vectorIfSaIfEE
FNDA:24,_ZN11OutputLayer19backwardPropagationEv
FNF:7
FNH:7
DA:24,12
DA:25,44
DA:26,44
DA:27,0
DA:30,88
DA:31,44
DA:32,508
DA:33,464
DA:34,464
DA:37,44
DA:41,24
DA:43,24
DA:45,24
DA:46,24
DA:47,0
DA:49,48
DA:50,264
DA:52,240
DA:54,240
DA:59,24
DA:60,24
DA:61,0
DA:63,48
DA:64,24
DA:66,24
DA:68,44
DA:69,44
DA:70,44
DA:71,44
LF:29
LH:26
end_of_record
TN:
SF:/home/runner/work/SMLP/SMLP/libs/libsmlp/include/Predict.h
FN:27,_ZN7PredictC2ESt10shared_ptrI7NetworkERK13AppParameters
FNDA:8,_ZN7PredictC2ESt10shared_ptrI7NetworkERK13AppParameters
FNF:1
FNH:1
DA:27,8
DA:28,8
DA:29,8
DA:30,8
LF:4
LH:4
end_of_record
TN:
SF:/home/runner/work/SMLP/SMLP/libs/libsmlp/include/SimpleConfig.h
FN:24,_ZN12SimpleConfigC2ERKNSt7__cxx1112basic_stringIcSt11char_traitsIcESaIcEEE
FN:35,_ZN12SimpleConfig9parseFileEv
FN:60,_ZN12SimpleConfig9parseJsonERSt14basic_ifstreamIcSt11char_traitsIcEE
FNDA:4,_ZN12SimpleConfig9parseJsonERSt14basic_ifstreamIcSt11char_traitsIcEE
FNDA:5,_ZN12SimpleConfig9parseFileEv
FNDA:5,_ZN12SimpleConfigC2ERKNSt7__cxx1112basic_stringIcSt11char_traitsIcESaIcEEE
FNF:3
FNH:3
DA:24,5
DA:25,5
DA:26,5
DA:35,5
DA:36,5
DA:37,1
DA:39,5
DA:40,6
DA:41,1
DA:43,5
DA:45,5
DA:46,1
DA:49,4
DA:50,0
DA:51,0
DA:52,0
DA:54,4
DA:56,4
DA:57,4
DA:60,4
DA:61,4
DA:63,4
DA:64,2
DA:67,4
DA:68,1
DA:71,4
DA:72,1
DA:75,4
DA:76,1
DA:79,4
DA:80,4
LF:31
LH:28
end_of_record
TN:
SF:/home/runner/work/SMLP/SMLP/libs/libsmlp/include/SimpleLang.h
FN:25,_ZN10SimpleLang11getInstanceEv
FN:38,_ZN10SimpleLang5ErrorE5ErrorRKSt3mapINSt7__cxx1112basic_stringIcSt11char_traitsIcESaIcEEES7_St4lessIvESaISt4pairIKS7_S7_EEE
FN:67,_ZNK10SimpleLang3getERKNSt7__cxx1112basic_stringIcSt11char_traitsIcESaIcEEERKSt3mapIS5_S5_St4lessIvESaISt4pairIS6_S5_EEE
FN:87,_ZNK10SimpleLang3getE5ErrorRKSt3mapINSt7__cxx1112basic_stringIcSt11char_traitsIcESaIcEEES7_St4lessIvESaISt4pairIKS7_S7_EEE
FN:99,_ZNK10SimpleLang9parseFileERKNSt7__cxx1112basic_stringIcSt11char_traitsIcESaIcEEE
FN:139,_ZN10SimpleLangC2Ev
FN:144,_ZNK10SimpleLang16replaceVariablesMUlRKSt3mapINSt7__cxx1112basic_stringIcSt11char_traitsIcESaIcEEES6_St4lessIvESaISt4pairIKS6_S6_EEES6_E_clESF_S6_
FNDA:8,_ZNK10SimpleLang9parseFileERKNSt7__cxx1112basic_stringIcSt11char_traitsIcESaIcEEE
FNDA:0,_ZN10SimpleLang5ErrorE5ErrorRKSt3mapINSt7__cxx1112basic_stringIcSt11char_traitsIcESaIcEEES7_St4lessIvESaISt4pairIKS7_S7_EEE
FNDA:6,_ZN10SimpleLang11getInstanceEv
FNDA:2,_ZNK10SimpleLang3getERKNSt7__cxx1112basic_stringIcSt11char_traitsIcESaIcEEERKSt3mapIS5_S5_St4lessIvESaISt4pairIS6_S5_EEE
FNDA:12,_ZNK10SimpleLang16replaceVariablesMUlRKSt3mapINSt7__cxx1112basic_stringIcSt11char_traitsIcESaIcEEES6_St4lessIvESaISt4pairIKS6_S6_EEES6_E_clESF_S6_
FNDA:1,_ZN10SimpleLangC2Ev
FNDA:10,_ZNK10SimpleLang3getE5ErrorRKSt3mapINSt7__cxx1112basic_stringIcSt11char_traitsIcESaIcEEES7_St4lessIvESaISt4pairIKS7_S7_EEE
FNF:7
FNH:6
DA:25,6
DA:26,6
DA:27,6
DA:38,0
DA:39,0
DA:67,2
DA:68,2
DA:69,2
DA:70,2
DA:72,0
DA:87,10
DA:90,10
DA:91,10
DA:92,8
DA:95,2
DA:99,8
DA:100,8
DA:101,8
DA:102,16
DA:103,9
DA:104,1
DA:106,16
DA:107,16
DA:109,8
DA:110,1
DA:111,2
DA:114,7
DA:115,0
DA:116,0
DA:117,0
DA:119,7
DA:122,7
DA:124,245
DA:125,238
DA:127,7
DA:129,0
DA:130,0
DA:131,0
DA:132,0
DA:134,7
DA:139,1
DA:144,12
DA:145,14
DA:146,4
DA:147,2
DA:148,4
DA:150,2
DA:151,2
DA:154,12
LF:49
LH:39
end_of_record
TN:
SF:/home/runner/work/SMLP/SMLP/libs/libsmlp/include/SimpleLogger.h
FN:25,_ZN12SimpleLogger10getIntanceEv
FN:48,_ZNK12SimpleLogger3logIJRA12_KcEEERKS_8LogLevelbDpOT_
FN:48,_ZNK12SimpleLogger3logIJRA16_KcmRA2_S1_RKmRA5_S1_EEERKS_8LogLevelbDpOT_
FN:48,_ZNK12SimpleLogger3logIJRNSt7__cxx1112basic_stringIcSt11char_traitsIcESaIcEEEEEERKS_8LogLevelbDpOT_
FN:48,_ZNK12SimpleLogger3logIJRA15_KcRdRA2_S1_EEERKS_8LogLevelbDpOT_
FN:102,_ZNK12SimpleLogger6appendIJRA12_KcEEERKS_DpOT_
FN:102,_ZNK12SimpleLogger6appendIJRA2_KcfEEERKS_DpOT_
FN:102,_ZNK12SimpleLogger6appendIJRA2_KcEEERKS_DpOT_
FN:102,_ZNK12SimpleLogger6appendIJRA9_KcfEEERKS_DpOT_
FN:102,_ZNK12SimpleLogger6appendIJRfEEERKS_DpOT_
FN:102,_ZNK12SimpleLogger6appendIJfEEERKS_DpOT_
FN:102,_ZNK12SimpleLogger6appendIJRA3_KcEEERKS_DpOT_
FN:138,_ZNK12SimpleLogger3outIJRA9_KcfRA3_S1_RfRA2_S1_EEERKS_DpOT_
FN:138,_ZNK12SimpleLogger3outIJRA8_KcfRA3_S1_RfRA2_S1_EEERKS_DpOT_
FN:138,_ZNK12SimpleLogger3outIJNSt7__cxx1112basic_stringIcSt11char_traitsIcESaIcEEEEEERKS_DpOT_
FN:138,_ZNK12SimpleLogger3outIJRA2_KcEEERKS_DpOT_
FN:176,_ZNK12SimpleLogger4infoIJNSt7__cxx1112basic_stringIcSt11char_traitsIcESaIcEEEEEERKS_DpOT_
FN:176,_ZNK12SimpleLogger4infoIJRA15_KcdRA2_S1_EEERKS_DpOT_
FN:192,_ZNK12SimpleLogger4warnIJNSt7__cxx1112basic_stringIcSt11char_traitsIcESaIcEEEEEERKS_DpOT_
FN:243,_ZNK12SimpleLogger4endlEb
FN:260,_ZNK12SimpleLogger12setPrecisionEl
FN:270,_ZNK12SimpleLogger14resetPrecisionEv
FN:276,_ZN12SimpleLoggerC2Ev
FNDA:1,_ZNK12SimpleLogger4infoIJNSt7__cxx1112basic_stringIcSt11char_traitsIcESaIcEEEEEERKS_DpOT_
FNDA:1,_ZN12SimpleLoggerC2Ev
FNDA:2,_ZNK12SimpleLogger6appendIJRA12_KcEEERKS_DpOT_
FNDA:1,_ZNK12SimpleLogger3outIJRA9_KcfRA3_S1_RfRA2_S1_EEERKS_DpOT_
FNDA:1,_ZNK12SimpleLogger3logIJRA12_KcEEERKS_8LogLevelbDpOT_
FNDA:197,_ZNK12SimpleLogger6appendIJRA2_KcfEEERKS_DpOT_
FNDA:12,_ZNK12SimpleLogger6appendIJRA2_KcEEERKS_DpOT_
FNDA:1,_ZNK12SimpleLogger3outIJRA8_KcfRA3_S1_RfRA2_S1_EEERKS_DpOT_
FNDA:3,_ZNK12SimpleLogger4infoIJRA15_KcdRA2_S1_EEERKS_DpOT_
FNDA:2,_ZNK12SimpleLogger3outIJNSt7__cxx1112basic_stringIcSt11char_traitsIcESaIcEEEEEERKS_DpOT_
FNDA:0,_ZNK12SimpleLogger4warnIJNSt7__cxx1112basic_stringIcSt11char_traitsIcESaIcEEEEEERKS_DpOT_
FNDA:1,_ZNK12SimpleLogger6appendIJRA9_KcfEEERKS_DpOT_
FNDA:15,_ZNK12SimpleLogger12setPrecisionEl
FNDA:1,_ZNK12SimpleLogger3outIJRA2_KcEEERKS_DpOT_
FNDA:16,_ZNK12SimpleLogger4endlEb
FNDA:51,_ZN12SimpleLogger10getIntanceEv
FNDA:4,_ZNK12SimpleLogger3logIJRA16_KcmRA2_S1_RKmRA5_S1_EEERKS_8LogLevelbDpOT_
FNDA:14,_ZNK12SimpleLogger14resetPrecisionEv
FNDA:1,_ZNK12SimpleLogger6appendIJRfEEERKS_DpOT_
FNDA:1,_ZNK12SimpleLogger3logIJRNSt7__cxx1112basic_stringIcSt11char_traitsIcESaIcEEEEEERKS_8LogLevelbDpOT_
FNDA:26,_ZNK12SimpleLogger6appendIJfEEERKS_DpOT_
FNDA:3,_ZNK12SimpleLogger3logIJRA15_KcRdRA2_S1_EEERKS_8LogLevelbDpOT_
FNDA:2,_ZNK12SimpleLogger6appendIJRA3_KcEEERKS_DpOT_
FNF:23
FNH:22
DA:25,51
DA:26,51
DA:27,51
DA:48,9
DA:50,9
DA:51,9
DA:52,9
DA:53,9
DA:55,9
DA:56,9
DA:57,9
DA:58,9
DA:59,0
DA:60,0
DA:61,0
DA:62,0
DA:63,0
DA:64,0
DA:65,0
DA:66,0
DA:67,0
DA:68,0
DA:69,0
DA:70,0
DA:73,9
DA:74,9
DA:75,9
DA:76,9
DA:77,4
DA:80,0
DA:81,0
DA:82,0
DA:83,0
DA:87,18
DA:102,241
DA:103,241
DA:104,241
DA:105,241
DA:138,5
DA:139,5
DA:140,5
DA:141,5
DA:142,5
DA:176,4
DA:177,4
DA:192,0
DA:193,0
DA:243,16
DA:244,16
DA:245,0
DA:246,0
DA:248,16
DA:249,16
DA:251,16
DA:260,15
DA:261,15
DA:262,15
DA:270,14
DA:271,14
DA:272,14
DA:276,1
LF:61
LH:41
end_of_record
TN:
SF:/home/runner/work/SMLP/SMLP/libs/libsmlp/include/Testing.h
FN:32,_ZN7TestingC2ESt10shared_ptrI7NetworkES0_I14DataFileParserE
FN:114,_ZNK7Testing17getTestingResultsEv
FNDA:5,_ZNK7Testing17getTestingResultsEv
FNDA:3,_ZN7TestingC2ESt10shared_ptrI7NetworkES0_I14DataFileParserE
FNF:2
FNH:2
DA:32,3
DA:34,3
DA:35,3
DA:114,5
DA:115,5
LF:5
LH:5
end_of_record
TN:
SF:/home/runner/work/SMLP/SMLP/libs/libsmlp/include/TestingResult.h
FN:93,_ZNK13TestingResult11getProgressEv
FNDA:1,_ZNK13TestingResult11getProgressEv
FNF:1
FNH:1
DA:93,1
DA:94,1
LF:2
LH:2
end_of_record
TN:
SF:/home/runner/work/SMLP/SMLP/libs/libsmlp/include/Training.h
FN:64,_ZN8TrainingC2ESt10shared_ptrI7NetworkERKNSt7__cxx1112basic_stringIcSt11char_traitsIcESaIcEEE
FN:105,_ZNK8Training13getFileParserEv
FN:120,_ZN8Training13createTestingEv
FN:129,_ZNK8Training10getTestingEv
FNDA:1,_ZN8Training13createTestingEv
FNDA:8,_ZN8TrainingC2ESt10shared_ptrI7NetworkERKNSt7__cxx1112basic_stringIcSt11char_traitsIcESaIcEEE
FNDA:1,_ZNK8Training10getTestingEv
FNDA:7,_ZNK8Training13getFileParserEv
FNF:4
FNH:4
DA:64,8
DA:65,8
DA:66,8
DA:105,7
DA:120,1
DA:121,1
DA:122,1
DA:129,1
LF:8
LH:8
end_of_record
TN:
SF:/home/runner/work/SMLP/SMLP/libs/libsmlp/include/exception/FileParserException.h
FN:12,_ZN19FileParserExceptionC2ERKNSt7__cxx1112basic_stringIcSt11char_traitsIcESaIcEEE
FN:14,_ZNK19FileParserException4whatEv
FNDA:4,_ZNK19FileParserException4whatEv
FNDA:4,_ZN19FileParserExceptionC2ERKNSt7__cxx1112basic_stringIcSt11char_traitsIcESaIcEEE
FNF:2
FNH:2
DA:12,4
DA:13,4
DA:14,4
LF:3
LH:3
end_of_record
TN:
SF:/home/runner/work/SMLP/SMLP/libs/libsmlp/include/exception/ImportExportException.h
FN:11,_ZN21ImportExportExceptionC2ERKNSt7__cxx1112basic_stringIcSt11char_traitsIcESaIcEEE
FN:13,_ZNK21ImportExportException4whatEv
FNDA:1,_ZN21ImportExportExceptionC2ERKNSt7__cxx1112basic_stringIcSt11char_traitsIcESaIcEEE
FNDA:1,_ZNK21ImportExportException4whatEv
FNF:2
FNH:2
DA:11,1
DA:12,1
DA:13,1
LF:3
LH:3
end_of_record
TN:
SF:/home/runner/work/SMLP/SMLP/libs/libsmlp/include/exception/NetworkException.h
FN:12,_ZN16NetworkExceptionC2ERKNSt7__cxx1112basic_stringIcSt11char_traitsIcESaIcEEE
FN:13,_ZNK16NetworkException4whatEv
FNDA:0,_ZN16NetworkExceptionC2ERKNSt7__cxx1112basic_stringIcSt11char_traitsIcESaIcEEE
FNDA:0,_ZNK16NetworkException4whatEv
FNF:2
FNH:0
DA:12,0
DA:13,0
LF:2
LH:0
end_of_record
TN:
SF:/home/runner/work/SMLP/SMLP/libs/libsmlp/include/exception/PredictException.h
FN:12,_ZN16PredictExceptionC2ERKNSt7__cxx1112basic_stringIcSt11char_traitsIcESaIcEEE
FN:13,_ZNK16PredictException4whatEv
FNDA:0,_ZN16PredictExceptionC2ERKNSt7__cxx1112basic_stringIcSt11char_traitsIcESaIcEEE
FNDA:0,_ZNK16PredictException4whatEv
FNF:2
FNH:0
DA:12,0
DA:13,0
LF:2
LH:0
end_of_record
TN:
SF:/home/runner/work/SMLP/SMLP/libs/libsmlp/include/exception/SimpleConfigException.h
FN:11,_ZN21SimpleConfigExceptionC2ERKNSt7__cxx1112basic_stringIcSt11char_traitsIcESaIcEEE
FN:13,_ZNK21SimpleConfigException4whatEv
FNDA:0,_ZNK21SimpleConfigException4whatEv
FNDA:0,_ZN21SimpleConfigExceptionC2ERKNSt7__cxx1112basic_stringIcSt11char_traitsIcESaIcEEE
FNF:2
FNH:0
DA:11,0
DA:12,0
DA:13,0
LF:3
LH:0
end_of_record
TN:
SF:/home/runner/work/SMLP/SMLP/libs/libsmlp/include/exception/SimpleLangException.h
FN:11,_ZN19SimpleLangExceptionC2ERKNSt7__cxx1112basic_stringIcSt11char_traitsIcESaIcEEE
FN:13,_ZNK19SimpleLangException4whatEv
FNDA:1,_ZNK19SimpleLangException4whatEv
FNDA:1,_ZN19SimpleLangExceptionC2ERKNSt7__cxx1112basic_stringIcSt11char_traitsIcESaIcEEE
FNF:2
FNH:2
DA:11,1
DA:12,1
DA:13,1
LF:3
LH:3
end_of_record
TN:
SF:/home/runner/work/SMLP/SMLP/libs/libsmlp/include/exception/TestingException.h
FN:11,_ZN16TestingExceptionC2ERKNSt7__cxx1112basic_stringIcSt11char_traitsIcESaIcEEE
FN:12,_ZNK16TestingException4whatEv
FNDA:0,_ZNK16TestingException4whatEv
FNDA:0,_ZN16TestingExceptionC2ERKNSt7__cxx1112basic_stringIcSt11char_traitsIcESaIcEEE
FNF:2
FNH:0
DA:11,0
DA:12,0
LF:2
LH:0
end_of_record
TN:
SF:/home/runner/work/SMLP/SMLP/libs/libsmlp/include/exception/TrainingException.h
FN:11,_ZN17TrainingExceptionC2ERKNSt7__cxx1112basic_stringIcSt11char_traitsIcESaIcEEE
FN:12,_ZNK17TrainingException4whatEv
FNDA:2,_ZNK17TrainingException4whatEv
FNDA:2,_ZN17TrainingExceptionC2ERKNSt7__cxx1112basic_stringIcSt11char_traitsIcESaIcEEE
FNF:2
FNH:2
DA:11,2
DA:12,2
LF:2
LH:2
end_of_record
TN:
SF:/home/runner/work/SMLP/SMLP/libs/libsmlp/src/DataFileParser.cpp
FN:8,_ZN14DataFileParserD0Ev
FN:8,_ZN14DataFileParserD2Ev
FN:14,_ZN14DataFileParser8openFileERKNSt7__cxx1112basic_stringIcSt11char_traitsIcESaIcEEE
FN:32,_ZN14DataFileParser9closeFileEv
FN:38,_ZN14DataFileParser8resetPosEv
FN:45,_ZN14DataFileParser11processLineERK17NetworkParametersRK13AppParametersRKNSt7__cxx1112basic_stringIcSt11char_traitsIcESaIcEEE
FN:70,_ZN14DataFileParser11getNextLineERNSt7__cxx1112basic_stringIcSt11char_traitsIcESaIcEEERK13AppParameters
FN:87,_ZNK14DataFileParser9parseLineERKNSt7__cxx1112basic_stringIcSt11char_traitsIcESaIcEEERSt6vectorIS8_IN3Csv13CellReferenceESaISA_EESaISC_EE
FN:101,_ZNK14DataFileParser15validateColumnsERKSt6vectorIS0_IN3Csv13CellReferenceESaIS2_EESaIS4_EERK17NetworkParametersRK13AppParameters
FN:131,_ZNK14DataFileParser14processColumnsERKSt6vectorIS0_IN3Csv13CellReferenceESaIS2_EESaIS4_EERK17NetworkParametersRK13AppParameters
FN:156,_ZNK14DataFileParser16processInputOnlyERKSt6vectorIS0_IN3Csv13CellReferenceESaIS2_EESaIS4_EEm
FN:160,_ZZNK14DataFileParser16processInputOnlyERKSt6vectorIS0_IN3Csv13CellReferenceESaIS2_EESaIS4_EEmENKUlT_E_clIS4_EEDaS9_
FN:168,_ZNK14DataFileParser17processInputFirstERKSt6vectorIS0_IN3Csv13CellReferenceESaIS2_EESaIS4_EEmm
FN:173,_ZZNK14DataFileParser17processInputFirstERKSt6vectorIS0_IN3Csv13CellReferenceESaIS2_EESaIS4_EEmmENKUlT_E_clIS4_EEDaS9_
FN:183,_ZNK14DataFileParser18processOutputFirstERKSt6vectorIS0_IN3Csv13CellReferenceESaIS2_EESaIS4_EEmm
FN:188,_ZZNK14DataFileParser18processOutputFirstERKSt6vectorIS0_IN3Csv13CellReferenceESaIS2_EESaIS4_EEmmENKUlT_E_clIS4_EEDaS9_
FNDA:1,_ZNK14DataFileParser17processInputFirstERKSt6vectorIS0_IN3Csv13CellReferenceESaIS2_EESaIS4_EEmm
FNDA:51,_ZN14DataFileParser11getNextLineERNSt7__cxx1112basic_stringIcSt11char_traitsIcESaIcEEERK13AppParameters
FNDA:40,_ZZNK14DataFileParser16processInputOnlyERKSt6vectorIS0_IN3Csv13CellReferenceESaIS2_EESaIS4_EEmENKUlT_E_clIS4_EEDaS9_
FNDA:20,_ZN14DataFileParser8openFileERKNSt7__cxx1112basic_stringIcSt11char_traitsIcESaIcEEE
FNDA:19,_ZN14DataFileParser9closeFileEv
FNDA:5,_ZN14DataFileParser8resetPosEv
FNDA:21,_ZZNK14DataFileParser17processInputFirstERKSt6vectorIS0_IN3Csv13CellReferenceESaIS2_EESaIS4_EEmmENKUlT_E_clIS4_EEDaS9_
FNDA:52,_ZNK14DataFileParser15validateColumnsERKSt6vectorIS0_IN3Csv13CellReferenceESaIS2_EESaIS4_EERK17NetworkParametersRK13AppParameters
FNDA:50,_ZNK14DataFileParser14processColumnsERKSt6vectorIS0_IN3Csv13CellReferenceESaIS2_EESaIS4_EERK17NetworkParametersRK13AppParameters
FNDA:52,_ZNK14DataFileParser9parseLineERKNSt7__cxx1112basic_stringIcSt11char_traitsIcESaIcEEERSt6vectorIS8_IN3Csv13CellReferenceESaISA_EESaISC_EE
FNDA:29,_ZN14DataFileParserD2Ev
FNDA:49,_ZNK14DataFileParser18processOutputFirstERKSt6vectorIS0_IN3Csv13CellReferenceESaIS2_EESaIS4_EEmm
FNDA:55,_ZN14DataFileParser11processLineERK17NetworkParametersRK13AppParametersRKNSt7__cxx1112basic_stringIcSt11char_traitsIcESaIcEEE
FNDA:0,_ZN14DataFileParserD0Ev
FNDA:1009,_ZZNK14DataFileParser18processOutputFirstERKSt6vectorIS0_IN3Csv13CellReferenceESaIS2_EESaIS4_EEmmENKUlT_E_clIS4_EEDaS9_
FNDA:2,_ZNK14DataFileParser16processInputOnlyERKSt6vectorIS0_IN3Csv13CellReferenceESaIS2_EESaIS4_EEm
FNF:16
FNH:15
DA:8,29
DA:9,29
DA:10,1
DA:12,29
DA:14,20
DA:15,20
DA:16,0
DA:17,0
DA:19,0
DA:22,20
DA:23,4
DA:25,20
DA:26,20
DA:27,1
DA:29,19
DA:32,19
DA:33,19
DA:34,18
DA:36,19
DA:38,5
DA:39,5
DA:40,5
DA:41,5
DA:42,5
DA:45,55
DA:49,110
DA:50,55
DA:51,55
DA:52,51
DA:53,3
DA:56,4
DA:59,104
DA:61,52
DA:63,52
DA:65,99
DA:67,49
DA:70,51
DA:73,51
DA:74,0
DA:75,0
DA:76,0
DA:77,0
DA:81,51
DA:82,3
DA:84,48
DA:87,52
DA:91,52
DA:92,52
DA:93,0
DA:94,0
DA:95,0
DA:96,0
DA:97,0
DA:99,52
DA:101,52
DA:105,52
DA:106,0
DA:107,0
DA:108,0
DA:111,101
DA:112,49
DA:113,49
DA:114,2
DA:115,1
DA:116,1
DA:117,1
DA:118,1
DA:121,54
DA:122,3
DA:123,2
DA:124,1
DA:125,1
DA:126,1
DA:127,1
DA:129,50
DA:131,50
DA:135,50
DA:137,52
DA:138,2
DA:139,2
DA:140,48
DA:141,0
DA:142,0
DA:144,47
DA:145,48
DA:147,2
DA:148,2
DA:149,1
DA:150,1
DA:151,1
DA:153,49
DA:156,2
DA:159,2
DA:160,40
DA:161,40
DA:163,0
DA:164,2
DA:165,6
DA:168,1
DA:171,2
DA:172,2
DA:173,21
DA:174,21
DA:176,0
DA:177,1
DA:178,0
DA:179,1
DA:180,2
DA:183,49
DA:186,98
DA:187,98
DA:188,1009
DA:189,1009
DA:191,1
DA:192,49
DA:193,0
DA:194,48
DA:195,96
LF:118
LH:97
end_of_record
TN:
SF:/home/runner/work/SMLP/SMLP/libs/libsmlp/src/Predict.cpp
FN:8,_ZNK7Predict7predictEv
FN:16,_ZNK7Predict12processStdinEv
FN:28,_ZNK7Predict11processFileEv
FN:45,_ZNK7Predict12appendValuesERKSt6vectorIfSaIfEEb
FN:48,_ZZNK7Predict12appendValuesERKSt6vectorIfSaIfEEbENKUlRKfE_clES6_
FN:62,_ZNK7Predict10showOutputERKSt6vectorIfSaIfEES4_
FNDA:0,_ZNK7Predict12processStdinEv
FNDA:26,_ZNK7Predict12appendValuesERKSt6vectorIfSaIfEEb
FNDA:207,_ZZNK7Predict12appendValuesERKSt6vectorIfSaIfEEbENKUlRKfE_clES6_
FNDA:1,_ZNK7Predict7predictEv
FNDA:14,_ZNK7Predict10showOutputERKSt6vectorIfSaIfEES4_
FNDA:1,_ZNK7Predict11processFileEv
FNF:6
FNH:5
DA:8,1
DA:9,1
DA:10,0
DA:12,1
DA:14,1
DA:16,0
DA:17,0
DA:18,0
DA:20,0
DA:21,0
DA:22,0
DA:23,0
DA:26,0
DA:28,1
DA:29,1
DA:30,1
DA:32,1
DA:33,12
DA:35,22
DA:36,11
DA:37,20
DA:38,10
DA:40,11
DA:42,1
DA:43,1
DA:45,26
DA:48,207
DA:49,207
DA:52,26
DA:53,26
DA:54,26
DA:55,26
DA:56,223
DA:57,197
DA:60,26
DA:62,14
DA:64,14
DA:65,14
DA:66,14
DA:67,11
DA:68,11
DA:69,11
DA:70,11
DA:71,11
DA:72,11
DA:73,11
DA:74,11
DA:75,1
DA:76,1
DA:77,1
DA:78,1
DA:79,1
DA:80,1
DA:81,1
DA:82,1
DA:83,1
DA:84,1
DA:85,1
DA:86,1
DA:87,1
DA:88,1
DA:89,0
DA:90,0
DA:91,0
DA:92,0
DA:94,14
DA:95,14
LF:67
LH:54
end_of_record
TN:
SF:/home/runner/work/SMLP/SMLP/libs/libsmlp/src/Testing.cpp
FN:10,_ZN7Testing4testERK17NetworkParametersRK13AppParametersmm
FN:20,_ZNK7Testing12testFromFileERK17NetworkParametersRK13AppParametersm
FN:65,_ZNK7Testing13testFromStdinERK17NetworkParametersRK13AppParametersm
FN:85,_ZNK7Testing8testLineERK17NetworkParametersRK13AppParametersRK12RecordResultmRSt6vectorIN13TestingResult11TestResultsESaISB_EE
FNDA:2,_ZNK7Testing8testLineERK17NetworkParametersRK13AppParametersRK12RecordResultmRSt6vectorIN13TestingResult11TestResultsESaISB_EE
FNDA:2,_ZNK7Testing12testFromFileERK17NetworkParametersRK13AppParametersm
FNDA:1,_ZNK7Testing13testFromStdinERK17NetworkParametersRK13AppParametersm
FNDA:1,_ZN7Testing4testERK17NetworkParametersRK13AppParametersmm
FNF:4
FNH:4
DA:10,1
DA:13,1
DA:14,1
DA:16,0
DA:18,1
DA:20,2
DA:23,2
DA:24,2
DA:25,0
DA:26,0
DA:27,0
DA:28,0
DA:30,0
DA:31,0
DA:32,0
DA:36,2
DA:37,0
DA:40,4
DA:41,2
DA:42,2
DA:43,2
DA:44,4
DA:45,2
DA:46,12
DA:47,30
DA:48,10
DA:49,16
DA:52,8
DA:53,8
DA:54,8
DA:55,16
DA:58,2
DA:62,2
DA:63,2
DA:65,1
DA:68,2
DA:69,1
DA:70,1
DA:71,1
DA:73,2
DA:75,3
DA:76,2
DA:78,2
DA:79,2
DA:80,2
DA:82,1
DA:83,1
DA:85,2
DA:89,2
DA:90,0
DA:92,2
DA:93,4
DA:96,2
DA:97,2
DA:99,4
DA:100,4
LF:56
LH:46
end_of_record
TN:
SF:/home/runner/work/SMLP/SMLP/libs/libsmlp/src/TestingResult.cpp
FN:10,_ZN13TestingResult15showResultsLineB5cxx11Eb
FN:24,_ZNK13TestingResult18showResultsVerboseB5cxx11ERKNS_11TestResultsE5EMode
FN:38,_ZN13TestingResult20showDetailledResultsB5cxx11E5EModeb
FN:60,_ZNK13TestingResult19showAccuracyResultsB5cxx11ERKNS_4StatE
FN:73,_ZNK13TestingResult22showConvergenceResultsB5cxx11ERKNS_4StatE
FN:88,_ZN13TestingResult14processResultsERKSt6vectorINS_11TestResultsESaIS1_EE5EModem
FN:106,_ZN13TestingResult9calcStatsEb
FN:133,_ZN13TestingResult11updateStatsERNS_4StatERKNS_11TestResultsEb
FN:148,_ZNK13TestingResult22updateConvergenceStatsERNS_4StatERKNS_11TestResultsE
FN:161,_ZNK13TestingResult21updatePredictionStatsERNS_4StatERKNS_11TestResultsE
FN:174,_ZNK13TestingResult20calculatePercentagesERNS_4StatEb
FNDA:3,_ZN13TestingResult14processResultsERKSt6vectorINS_11TestResultsESaIS1_EE5EModem
FNDA:2,_ZN13TestingResult15showResultsLineB5cxx11Eb
FNDA:4,_ZNK13TestingResult20calculatePercentagesERNS_4StatEb
FNDA:0,_ZNK13TestingResult18showResultsVerboseB5cxx11ERKNS_11TestResultsE5EMode
FNDA:16,_ZNK13TestingResult21updatePredictionStatsERNS_4StatERKNS_11TestResultsE
FNDA:1,_ZNK13TestingResult22showConvergenceResultsB5cxx11ERKNS_4StatE
FNDA:4,_ZN13TestingResult9calcStatsEb
FNDA:1,_ZN13TestingResult20showDetailledResultsB5cxx11E5EModeb
FNDA:16,_ZN13TestingResult11updateStatsERNS_4StatERKNS_11TestResultsEb
FNDA:1,_ZNK13TestingResult19showAccuracyResultsB5cxx11ERKNS_4StatE
FNDA:12,_ZNK13TestingResult22updateConvergenceStatsERNS_4StatERKNS_11TestResultsE
FNF:11
FNH:10
DA:10,2
DA:11,2
DA:12,4
DA:14,2
DA:15,2
DA:16,2
DA:17,2
DA:18,2
DA:21,4
DA:24,0
DA:26,0
DA:27,0
DA:28,0
DA:29,0
DA:30,0
DA:31,0
DA:33,0
DA:35,0
DA:38,1
DA:39,1
DA:40,2
DA:42,1
DA:44,1
DA:45,0
DA:46,0
DA:48,0
DA:51,1
DA:53,1
DA:54,1
DA:56,2
DA:60,1
DA:61,2
DA:63,1
DA:64,1
DA:65,1
DA:66,1
DA:67,1
DA:68,1
DA:69,2
DA:73,1
DA:74,2
DA:76,1
DA:77,1
DA:78,1
DA:79,1
DA:80,1
DA:81,1
DA:82,1
DA:83,1
DA:84,1
DA:85,2
DA:88,3
DA:91,3
DA:93,13
DA:94,10
DA:95,6
DA:97,4
DA:102,3
DA:103,3
DA:104,3
DA:106,4
DA:107,4
DA:108,4
DA:109,20
DA:110,16
DA:111,16
DA:115,4
DA:116,4
DA:117,4
DA:118,4
DA:120,4
DA:121,0
DA:124,20
DA:125,16
DA:128,4
DA:130,4
DA:133,16
DA:135,16
DA:136,8
DA:138,8
DA:141,16
DA:142,12
DA:145,16
DA:146,16
DA:148,12
DA:150,18
DA:151,6
DA:152,6
DA:153,6
DA:154,12
DA:155,6
DA:156,0
DA:157,0
DA:159,12
DA:161,16
DA:163,16
DA:164,0
DA:166,16
DA:167,0
DA:169,16
DA:170,0
DA:172,16
DA:174,4
DA:175,4
DA:176,4
DA:177,4
DA:178,4
DA:179,4
DA:180,4
DA:181,4
DA:182,4
DA:183,4
DA:184,4
DA:185,4
DA:186,4
DA:187,4
DA:189,4
LF:117
LH:99
end_of_record
TN:
SF:/home/runner/work/SMLP/SMLP/libs/libsmlp/src/Training.cpp
FN:13,_ZN8Training5trainERK17NetworkParametersRK13AppParameters
FN:22,_ZN8Training14trainFromStdinERK17NetworkParametersRK13AppParameters
FN:44,_ZN8Training13trainFromFileERK17NetworkParametersRK13AppParameters
FN:88,_ZNK8Training16processInputLineERK17NetworkParametersRK13AppParametersRKNSt7__cxx1112basic_stringIcSt11char_traitsIcESaIcEEE
FNDA:5,_ZN8Training13trainFromFileERK17NetworkParametersRK13AppParameters
FNDA:6,_ZN8Training5trainERK17NetworkParametersRK13AppParameters
FNDA:1,_ZN8Training14trainFromStdinERK17NetworkParametersRK13AppParameters
FNDA:24,_ZNK8Training16processInputLineERK17NetworkParametersRK13AppParametersRKNSt7__cxx1112basic_stringIcSt11char_traitsIcESaIcEEE
FNF:4
FNH:4
DA:13,6
DA:15,6
DA:16,1
DA:18,5
DA:20,4
DA:22,1
DA:24,1
DA:25,1
DA:26,0
DA:28,1
DA:29,1
DA:30,2
DA:31,6
DA:32,2
DA:33,3
DA:34,2
DA:35,2
DA:37,1
DA:38,0
DA:39,0
DA:40,0
DA:42,1
DA:44,5
DA:46,5
DA:47,5
DA:48,5
DA:49,5
DA:50,5
DA:52,5
DA:53,2
DA:54,4
DA:56,3
DA:57,1
DA:59,3
DA:60,3
DA:61,7
DA:62,0
DA:63,4
DA:64,4
DA:65,26
DA:66,22
DA:68,4
DA:69,2
DA:70,2
DA:71,4
DA:72,2
DA:74,2
DA:77,3
DA:78,3
DA:80,3
DA:81,3
DA:82,3
DA:83,2
DA:84,1
DA:86,3
DA:88,24
DA:92,48
DA:93,24
DA:94,24
DA:95,24
DA:96,24
DA:98,24
LF:62
LH:57
end_of_record
