TN:
SF:/home/runner/work/SMLP/SMLP/libs/libsmlp/include/ActivationFunctions.h
FN:28,_ZNK7sigmoidMUlT_E_clIfEEDaS_
FN:29,_ZNK17sigmoidDerivativeMUlT_E_clIfEEDaS_
FN:39,_ZNK8tanhFuncMUlT_E_clIfEEDaS_
FN:40,_ZNK14tanhDerivativeMUlT_E_clIfEEDaS_
FN:53,_ZNK4reluMUlT_E_clIfEEDaS_
FN:54,_ZNK14reluDerivativeMUlT_E_clIfEEDaS_
FN:61,_ZNK9leakyReluMUlT_E_clIfEEDaS_
FN:62,_ZNK19leakyReluDerivativeMUlT_E_clIfEEDaS_
FN:70,_ZNK14parametricReluMUlT_T0_E_clIffEEDaS_S0_
FN:73,_ZNK24parametricReluDerivativeMUlT_T0_E_clIffEEDaS_S0_
FN:85,_ZNK3eluMUlT_T0_E_clIffEEDaS_S0_
FN:88,_ZNK13eluDerivativeMUlT_T0_E_clIffEEDaS_S0_
FNDA:0,_ZNK24parametricReluDerivativeMUlT_T0_E_clIffEEDaS_S0_
FNDA:6,_ZNK14tanhDerivativeMUlT_E_clIfEEDaS_
FNDA:0,_ZNK4reluMUlT_E_clIfEEDaS_
FNDA:0,_ZNK14reluDerivativeMUlT_E_clIfEEDaS_
FNDA:6,_ZNK8tanhFuncMUlT_E_clIfEEDaS_
FNDA:0,_ZNK14parametricReluMUlT_T0_E_clIffEEDaS_S0_
FNDA:761,_ZNK7sigmoidMUlT_E_clIfEEDaS_
FNDA:6,_ZNK3eluMUlT_T0_E_clIffEEDaS_S0_
FNDA:4,_ZNK13eluDerivativeMUlT_T0_E_clIffEEDaS_S0_
FNDA:0,_ZNK19leakyReluDerivativeMUlT_E_clIfEEDaS_
FNDA:0,_ZNK9leakyReluMUlT_E_clIfEEDaS_
FNDA:240,_ZNK17sigmoidDerivativeMUlT_E_clIfEEDaS_
FNF:12
FNH:6
DA:28,761
DA:29,240
DA:30,240
DA:31,240
DA:39,6
DA:40,6
DA:41,6
DA:42,6
DA:53,0
DA:54,0
DA:61,0
DA:62,0
DA:70,0
DA:71,0
DA:73,0
DA:74,0
DA:85,6
DA:86,6
DA:88,4
DA:89,4
LF:20
LH:12
end_of_record
TN:
SF:/home/runner/work/SMLP/SMLP/libs/libsmlp/include/Common.h
FN:40,_ZN6Common10getModeStrB5cxx11E5EMode
FN:49,_ZN6Common20getPredictiveModeStrB5cxx11E15EPredictiveMode
FN:58,_ZN6Common16getActivationStrB5cxx11E19EActivationFunction
FNDA:4,_ZN6Common20getPredictiveModeStrB5cxx11E15EPredictiveMode
FNDA:6,_ZN6Common16getActivationStrB5cxx11E19EActivationFunction
FNDA:5,_ZN6Common10getModeStrB5cxx11E5EMode
FNF:3
FNH:3
DA:40,5
DA:41,15
DA:42,15
DA:43,5
DA:46,0
DA:49,4
DA:50,10
DA:51,10
DA:52,4
DA:55,0
DA:58,6
DA:59,21
DA:60,21
DA:61,6
DA:64,0
LF:15
LH:12
end_of_record
TN:
SF:/home/runner/work/SMLP/SMLP/libs/libsmlp/include/DataFileParser.h
FN:28,_ZN14DataFileParserC2ERKNSt7__cxx1112basic_stringIcSt11char_traitsIcESaIcEEE
FN:57,_ZN14DataFileParser20getTrainingRatioLineEfmb
FN:74,_ZN14DataFileParser9countLineEv
FNDA:8,_ZN14DataFileParser9countLineEv
FNDA:32,_ZN14DataFileParserC2ERKNSt7__cxx1112basic_stringIcSt11char_traitsIcESaIcEEE
FNDA:7,_ZN14DataFileParser20getTrainingRatioLineEfmb
FNF:3
FNH:3
DA:28,32
DA:57,7
DA:59,7
DA:60,0
DA:62,7
DA:63,7
DA:65,7
DA:66,7
DA:74,8
DA:75,8
DA:76,8
DA:77,8
DA:78,8
DA:79,8
DA:80,8
LF:15
LH:14
end_of_record
TN:
SF:/home/runner/work/SMLP/SMLP/libs/libsmlp/include/HiddenLayer.h
FN:21,_ZN11HiddenLayerC2Ev
FN:23,_ZN11HiddenLayer18forwardPropagationEv
FN:39,_ZN11HiddenLayer19backwardPropagationEv
FN:55,_ZN11HiddenLayer13updateWeightsEf
FNDA:15,_ZN11HiddenLayerC2Ev
FNDA:24,_ZN11HiddenLayer13updateWeightsEf
FNDA:45,_ZN11HiddenLayer18forwardPropagationEv
FNDA:24,_ZN11HiddenLayer19backwardPropagationEv
FNF:4
FNH:4
DA:21,15
DA:23,45
DA:24,45
DA:25,0
DA:28,521
DA:29,476
DA:30,9996
DA:31,9520
DA:32,9520
DA:35,476
DA:39,24
DA:40,24
DA:41,0
DA:45,264
DA:46,240
DA:47,480
DA:48,240
DA:50,240
DA:51,240
DA:55,24
DA:56,24
DA:57,0
DA:59,264
DA:60,5040
DA:62,4800
DA:64,4800
LF:26
LH:23
end_of_record
TN:
SF:/home/runner/work/SMLP/SMLP/libs/libsmlp/include/InputLayer.h
FN:22,_ZN10InputLayerC2Ev
FN:23,_ZN10InputLayer18forwardPropagationEv
FN:27,_ZN10InputLayer19backwardPropagationEv
FN:31,_ZN10InputLayer13updateWeightsEf
FN:35,_ZN10InputLayer14setInputValuesERKSt6vectorIfSaIfEE
FNDA:24,_ZN10InputLayer13updateWeightsEf
FNDA:13,_ZN10InputLayerC2Ev
FNDA:45,_ZN10InputLayer18forwardPropagationEv
FNDA:24,_ZN10InputLayer19backwardPropagationEv
FNDA:45,_ZN10InputLayer14setInputValuesERKSt6vectorIfSaIfEE
FNF:5
FNH:5
DA:22,13
DA:23,45
DA:25,45
DA:27,24
DA:29,24
DA:31,24
DA:33,24
DA:35,45
DA:36,45
DA:37,0
DA:39,945
DA:40,900
DA:42,45
LF:13
LH:12
end_of_record
TN:
SF:/home/runner/work/SMLP/SMLP/libs/libsmlp/include/Layer.h
FN:29,_ZN5LayerC2E9LayerType
FN:39,_ZN5LayerD0Ev
FN:39,_ZN5LayerD2Ev
FN:61,_ZNK5Layer12layerTypeStrB5cxx11Ev
FN:70,_ZN5Layer21setActivationFunctionERKSt8functionIFffEES4_
FNDA:41,_ZN5LayerC2E9LayerType
FNDA:32,_ZN5LayerD2Ev
FNDA:3,_ZNK5Layer12layerTypeStrB5cxx11Ev
FNDA:0,_ZN5LayerD0Ev
FNDA:33,_ZN5Layer21setActivationFunctionERKSt8functionIFffEES4_
FNF:5
FNH:4
DA:29,41
DA:39,32
DA:61,3
DA:62,6
DA:63,6
DA:64,3
DA:67,0
DA:70,33
DA:72,195
DA:73,162
DA:74,162
DA:76,33
LF:12
LH:11
end_of_record
TN:
SF:/home/runner/work/SMLP/SMLP/libs/libsmlp/include/Network.h
FN:33,_ZN7NetworkD2Ev
FN:43,_ZN7NetworkC2Ev
FN:51,_ZN7NetworkC2ERK17NetworkParameters
FN:66,_ZN7Network18forwardPropagationERKSt6vectorIfSaIfEE
FN:80,_ZN7Network19backwardPropagationERKSt6vectorIfSaIfEE
FN:91,_ZNK7Network13updateWeightsEv
FN:97,_ZN7Network10bindLayersEv
FN:108,_ZNK7Network17initializeWeightsEv
FN:118,_ZN7Network16initializeLayersEv
FN:141,_ZNK7Network21SetActivationFunctionEP5Layer19EActivationFunctionf
FN:147,_ZZNK7Network21SetActivationFunctionEP5Layer19EActivationFunctionfENKUlT_E_clIfEEDaS3_
FN:148,_ZZNK7Network21SetActivationFunctionEP5Layer19EActivationFunctionfENKUlT_E0_clIfEEDaS3_
FN:157,_ZZNK7Network21SetActivationFunctionEP5Layer19EActivationFunctionfENKUlT_E1_clIfEEDaS3_
FN:160,_ZZNK7Network21SetActivationFunctionEP5Layer19EActivationFunctionfENKUlT_E2_clIfEEDaS3_
FNDA:24,_ZNK7Network13updateWeightsEv
FNDA:34,_ZNK7Network21SetActivationFunctionEP5Layer19EActivationFunctionf
FNDA:10,_ZN7Network16initializeLayersEv
FNDA:4,_ZZNK7Network21SetActivationFunctionEP5Layer19EActivationFunctionfENKUlT_E0_clIfEEDaS3_
FNDA:13,_ZN7Network10bindLayersEv
FNDA:10,_ZN7NetworkC2ERK17NetworkParameters
FNDA:14,_ZN7NetworkD2Ev
FNDA:0,_ZZNK7Network21SetActivationFunctionEP5Layer19EActivationFunctionfENKUlT_E1_clIfEEDaS3_
FNDA:10,_ZNK7Network17initializeWeightsEv
FNDA:0,_ZZNK7Network21SetActivationFunctionEP5Layer19EActivationFunctionfENKUlT_E2_clIfEEDaS3_
FNDA:45,_ZN7Network18forwardPropagationERKSt6vectorIfSaIfEE
FNDA:7,_ZN7NetworkC2Ev
FNDA:6,_ZZNK7Network21SetActivationFunctionEP5Layer19EActivationFunctionfENKUlT_E_clIfEEDaS3_
FNDA:24,_ZN7Network19backwardPropagationERKSt6vectorIfSaIfEE
FNF:14
FNH:12
DA:33,14
DA:34,45
DA:35,31
DA:37,14
DA:43,7
DA:51,10
DA:52,10
DA:53,10
DA:66,45
DA:67,45
DA:68,180
DA:69,135
DA:71,45
DA:80,24
DA:81,24
DA:82,96
DA:83,72
DA:85,24
DA:91,24
DA:92,96
DA:93,72
DA:95,24
DA:97,13
DA:98,53
DA:99,40
DA:100,27
DA:102,40
DA:103,27
DA:106,13
DA:108,10
DA:109,41
DA:110,31
DA:111,132
DA:112,111
DA:116,10
DA:118,10
DA:119,10
DA:120,10
DA:121,10
DA:123,21
DA:124,11
DA:125,11
DA:126,11
DA:128,11
DA:131,10
DA:132,10
DA:133,10
DA:135,10
DA:137,10
DA:138,10
DA:139,10
DA:141,34
DA:144,34
DA:145,1
DA:146,1
DA:147,6
DA:148,4
DA:149,4
DA:151,1
DA:152,1
DA:153,1
DA:154,1
DA:155,1
DA:156,1
DA:157,0
DA:158,0
DA:160,0
DA:161,0
DA:163,1
DA:164,1
DA:165,1
DA:166,1
DA:167,28
DA:168,28
DA:169,28
DA:170,1
DA:171,1
DA:172,1
DA:173,1
DA:174,1
DA:175,2
DA:177,33
LF:82
LH:78
end_of_record
TN:
SF:/home/runner/work/SMLP/SMLP/libs/libsmlp/include/NetworkImportExportJSON.h
FN:39,_ZN23NetworkImportExportJSON11importModelERK13AppParameters
FN:164,_ZNK23NetworkImportExportJSON16createJsonNeuronB5cxx11ERK6Neuron9LayerType
FN:182,_ZNK23NetworkImportExportJSON11exportModelEPK7NetworkRK13AppParameters
FNDA:33,_ZNK23NetworkImportExportJSON16createJsonNeuronB5cxx11ERK6Neuron9LayerType
FNDA:1,_ZNK23NetworkImportExportJSON11exportModelEPK7NetworkRK13AppParameters
FNDA:4,_ZN23NetworkImportExportJSON11importModelERK13AppParameters
FNF:3
FNH:3
DA:39,4
DA:40,4
DA:41,4
DA:43,4
DA:44,0
DA:47,8
DA:48,8
DA:49,4
DA:52,8
DA:53,5
DA:55,4
DA:56,1
DA:57,2
DA:60,3
DA:61,0
DA:62,0
DA:63,0
DA:65,3
DA:68,3
DA:70,6
DA:71,3
DA:73,0
DA:74,0
DA:78,3
DA:79,3
DA:80,3
DA:81,3
DA:82,3
DA:83,3
DA:84,3
DA:85,3
DA:86,3
DA:87,3
DA:88,3
DA:89,3
DA:90,3
DA:91,3
DA:93,12
DA:95,18
DA:96,9
DA:99,9
DA:100,9
DA:101,3
DA:102,3
DA:103,3
DA:104,3
DA:105,3
DA:106,3
DA:107,3
DA:108,3
DA:109,3
DA:110,0
DA:111,0
DA:115,108
DA:116,198
DA:117,99
DA:118,99
DA:122,9
DA:123,3
DA:124,3
DA:125,3
DA:126,3
DA:129,3
DA:130,3
DA:131,3
DA:134,3
DA:135,0
DA:136,0
DA:140,9
DA:143,3
DA:144,0
DA:147,3
DA:148,0
DA:151,3
DA:153,3
DA:155,6
DA:157,0
DA:158,0
DA:159,0
DA:160,0
DA:164,33
DA:165,198
DA:167,33
DA:168,265
DA:169,252
DA:173,33
DA:182,1
DA:184,2
DA:185,1
DA:188,4
DA:189,3
DA:190,36
DA:192,36
DA:193,66
DA:194,66
DA:197,3
DA:201,1
DA:202,1
DA:203,2
DA:204,1
DA:205,2
DA:206,1
DA:207,2
DA:208,1
DA:209,2
DA:210,1
DA:211,2
DA:212,1
DA:213,2
DA:214,1
DA:215,2
DA:216,1
DA:217,2
DA:221,2
DA:222,1
DA:223,1
DA:224,1
LF:117
LH:101
end_of_record
TN:
SF:/home/runner/work/SMLP/SMLP/libs/libsmlp/include/Neuron.h
FN:37,_ZN6NeuronC2Ev
FN:45,_ZN6Neuron11initWeightsEm
FNDA:111,_ZN6Neuron11initWeightsEm
FNDA:402,_ZN6NeuronC2Ev
FNF:2
FNH:2
DA:37,402
DA:45,111
DA:46,111
DA:49,222
DA:50,2130
DA:51,2019
DA:52,2019
DA:53,2019
DA:54,2019
DA:56,111
LF:10
LH:10
end_of_record
TN:
SF:/home/runner/work/SMLP/SMLP/libs/libsmlp/include/OutputLayer.h
FN:24,_ZN11OutputLayerC2Ev
FN:25,_ZN11OutputLayer18forwardPropagationEv
FN:41,_ZN11OutputLayer19backwardPropagationEv
FN:45,_ZN11OutputLayer13updateWeightsEf
FN:59,_ZN11OutputLayer13computeErrorsERKSt6vectorIfSaIfEE
FN:68,_ZN11OutputLayer15getOutputValuesEv
FN:69,_ZZN11OutputLayer15getOutputValuesEvENKUlRK6NeuronE_clES2_
FNDA:45,_ZN11OutputLayer15getOutputValuesEv
FNDA:45,_ZN11OutputLayer18forwardPropagationEv
FNDA:24,_ZN11OutputLayer13updateWeightsEf
FNDA:24,_ZN11OutputLayer19backwardPropagationEv
FNDA:45,_ZZN11OutputLayer15getOutputValuesEvENKUlRK6NeuronE_clES2_
FNDA:24,_ZN11OutputLayer13computeErrorsERKSt6vectorIfSaIfEE
FNDA:13,_ZN11OutputLayerC2Ev
FNF:7
FNH:7
DA:24,13
DA:25,45
DA:26,45
DA:27,0
DA:30,90
DA:31,45
DA:32,521
DA:33,476
DA:34,476
DA:37,45
DA:41,24
DA:43,24
DA:45,24
DA:46,24
DA:47,0
DA:49,48
DA:50,264
DA:52,240
DA:54,240
DA:59,24
DA:60,24
DA:61,0
DA:63,48
DA:64,24
DA:66,24
DA:68,45
DA:69,45
DA:70,45
DA:71,45
LF:29
LH:26
end_of_record
TN:
SF:/home/runner/work/SMLP/SMLP/libs/libsmlp/include/Predict.h
FN:27,_ZN7PredictC2ESt10shared_ptrI7NetworkERK13AppParameters
FNDA:9,_ZN7PredictC2ESt10shared_ptrI7NetworkERK13AppParameters
FNF:1
FNH:1
DA:27,9
DA:28,9
DA:29,9
DA:30,9
LF:4
LH:4
end_of_record
TN:
SF:/home/runner/work/SMLP/SMLP/libs/libsmlp/include/SimpleConfig.h
FN:24,_ZN12SimpleConfigC2ERKNSt7__cxx1112basic_stringIcSt11char_traitsIcESaIcEEE
FN:35,_ZN12SimpleConfig9parseFileEv
FN:60,_ZN12SimpleConfig9parseJsonERSt14basic_ifstreamIcSt11char_traitsIcEE
FNDA:4,_ZN12SimpleConfig9parseJsonERSt14basic_ifstreamIcSt11char_traitsIcEE
FNDA:6,_ZN12SimpleConfigC2ERKNSt7__cxx1112basic_stringIcSt11char_traitsIcESaIcEEE
FNDA:6,_ZN12SimpleConfig9parseFileEv
FNF:3
FNH:3
DA:24,11
DA:25,6
DA:26,5
DA:35,6
DA:36,6
DA:37,1
DA:39,7
DA:40,7
DA:41,1
DA:43,7
DA:45,6
DA:46,1
DA:49,5
DA:50,1
DA:51,3
DA:52,4
DA:54,4
DA:56,4
DA:57,4
DA:60,4
DA:61,4
DA:63,4
DA:64,2
DA:67,4
DA:68,1
DA:71,4
DA:72,1
DA:75,4
DA:76,1
DA:79,4
DA:80,4
LF:31
LH:31
end_of_record
TN:
SF:/home/runner/work/SMLP/SMLP/libs/libsmlp/include/SimpleLang.h
FN:25,_ZN10SimpleLang11getInstanceEv
FN:38,_ZN10SimpleLang5ErrorE5ErrorRKSt3mapINSt7__cxx1112basic_stringIcSt11char_traitsIcESaIcEEES7_St4lessIvESaISt4pairIKS7_S7_EEE
FN:67,_ZNK10SimpleLang3getERKNSt7__cxx1112basic_stringIcSt11char_traitsIcESaIcEEERKSt3mapIS5_S5_St4lessIvESaISt4pairIS6_S5_EEE
FN:87,_ZNK10SimpleLang3getE5ErrorRKSt3mapINSt7__cxx1112basic_stringIcSt11char_traitsIcESaIcEEES7_St4lessIvESaISt4pairIKS7_S7_EEE
FN:99,_ZNK10SimpleLang9parseFileERKNSt7__cxx1112basic_stringIcSt11char_traitsIcESaIcEEE
FN:139,_ZN10SimpleLangC2Ev
FN:144,_ZNK10SimpleLang16replaceVariablesMUlRKSt3mapINSt7__cxx1112basic_stringIcSt11char_traitsIcESaIcEEES6_St4lessIvESaISt4pairIKS6_S6_EEES6_E_clESF_S6_
FNDA:2,_ZNK10SimpleLang3getERKNSt7__cxx1112basic_stringIcSt11char_traitsIcESaIcEEERKSt3mapIS5_S5_St4lessIvESaISt4pairIS6_S5_EEE
FNDA:21,_ZN10SimpleLang11getInstanceEv
FNDA:26,_ZNK10SimpleLang16replaceVariablesMUlRKSt3mapINSt7__cxx1112basic_stringIcSt11char_traitsIcESaIcEEES6_St4lessIvESaISt4pairIKS6_S6_EEES6_E_clESF_S6_
FNDA:1,_ZN10SimpleLangC2Ev
FNDA:14,_ZN10SimpleLang5ErrorE5ErrorRKSt3mapINSt7__cxx1112basic_stringIcSt11char_traitsIcESaIcEEES7_St4lessIvESaISt4pairIKS7_S7_EEE
FNDA:8,_ZNK10SimpleLang9parseFileERKNSt7__cxx1112basic_stringIcSt11char_traitsIcESaIcEEE
FNDA:24,_ZNK10SimpleLang3getE5ErrorRKSt3mapINSt7__cxx1112basic_stringIcSt11char_traitsIcESaIcEEES7_St4lessIvESaISt4pairIKS7_S7_EEE
FNF:7
FNH:7
DA:25,21
DA:26,21
DA:27,21
DA:38,14
DA:39,14
DA:67,2
DA:68,2
DA:69,2
DA:70,2
DA:72,0
DA:87,24
DA:90,24
DA:91,24
DA:92,12
DA:95,12
DA:99,8
DA:100,8
DA:101,8
DA:102,16
DA:103,9
DA:104,1
DA:106,16
DA:107,16
DA:109,8
DA:110,1
DA:111,2
DA:114,7
DA:115,0
DA:116,0
DA:117,0
DA:119,7
DA:122,7
DA:124,301
DA:125,294
DA:127,7
DA:129,0
DA:130,0
DA:131,0
DA:132,0
DA:134,7
DA:139,1
DA:144,26
DA:145,35
DA:146,18
DA:147,9
DA:148,18
DA:150,9
DA:151,9
DA:154,26
LF:49
LH:41
end_of_record
TN:
SF:/home/runner/work/SMLP/SMLP/libs/libsmlp/include/SimpleLogger.h
FN:25,_ZN12SimpleLogger10getIntanceEv
FN:48,_ZNK12SimpleLogger3logIJRNSt7__cxx1112basic_stringIcSt11char_traitsIcESaIcEEEEEERKS_8LogLevelbDpOT_
FN:48,_ZNK12SimpleLogger3logIJRA15_KcRdRA2_S1_EEERKS_8LogLevelbDpOT_
FN:48,_ZNK12SimpleLogger3logIJRA16_KcmRA2_S1_RKmRA5_S1_EEERKS_8LogLevelbDpOT_
FN:48,_ZNK12SimpleLogger3logIJRA12_KcEEERKS_8LogLevelbDpOT_
FN:102,_ZNK12SimpleLogger6appendIJRA2_KcfEEERKS_DpOT_
FN:102,_ZNK12SimpleLogger6appendIJfEEERKS_DpOT_
FN:102,_ZNK12SimpleLogger6appendIJRA3_KcEEERKS_DpOT_
FN:102,_ZNK12SimpleLogger6appendIJRA2_KcEEERKS_DpOT_
FN:102,_ZNK12SimpleLogger6appendIJRfEEERKS_DpOT_
FN:102,_ZNK12SimpleLogger6appendIJRA12_KcEEERKS_DpOT_
FN:102,_ZNK12SimpleLogger6appendIJRA9_KcfEEERKS_DpOT_
FN:138,_ZNK12SimpleLogger3outIJRA2_KcEEERKS_DpOT_
FN:138,_ZNK12SimpleLogger3outIJRA9_KcfRA3_S1_RfRA2_S1_EEERKS_DpOT_
FN:138,_ZNK12SimpleLogger3outIJRA8_KcfRA3_S1_RfRA2_S1_EEERKS_DpOT_
FN:138,_ZNK12SimpleLogger3outIJNSt7__cxx1112basic_stringIcSt11char_traitsIcESaIcEEEEEERKS_DpOT_
FN:176,_ZNK12SimpleLogger4infoIJRA15_KcdRA2_S1_EEERKS_DpOT_
FN:176,_ZNK12SimpleLogger4infoIJNSt7__cxx1112basic_stringIcSt11char_traitsIcESaIcEEEEEERKS_DpOT_
FN:192,_ZNK12SimpleLogger4warnIJNSt7__cxx1112basic_stringIcSt11char_traitsIcESaIcEEEEEERKS_DpOT_
FN:243,_ZNK12SimpleLogger4endlEb
FN:260,_ZNK12SimpleLogger12setPrecisionEl
FN:270,_ZNK12SimpleLogger14resetPrecisionEv
FN:276,_ZN12SimpleLoggerC2Ev
FNDA:15,_ZNK12SimpleLogger14resetPrecisionEv
FNDA:1,_ZNK12SimpleLogger3logIJRNSt7__cxx1112basic_stringIcSt11char_traitsIcESaIcEEEEEERKS_8LogLevelbDpOT_
FNDA:1,_ZNK12SimpleLogger4infoIJNSt7__cxx1112basic_stringIcSt11char_traitsIcESaIcEEEEEERKS_DpOT_
FNDA:197,_ZNK12SimpleLogger6appendIJRA2_KcfEEERKS_DpOT_
FNDA:53,_ZN12SimpleLogger10getIntanceEv
FNDA:3,_ZNK12SimpleLogger4infoIJRA15_KcdRA2_S1_EEERKS_DpOT_
FNDA:26,_ZNK12SimpleLogger6appendIJfEEERKS_DpOT_
FNDA:1,_ZNK12SimpleLogger3outIJRA2_KcEEERKS_DpOT_
FNDA:1,_ZNK12SimpleLogger3outIJRA8_KcfRA3_S1_RfRA2_S1_EEERKS_DpOT_
FNDA:1,_ZNK12SimpleLogger3outIJRA9_KcfRA3_S1_RfRA2_S1_EEERKS_DpOT_
FNDA:3,_ZNK12SimpleLogger3logIJRA15_KcRdRA2_S1_EEERKS_8LogLevelbDpOT_
FNDA:2,_ZNK12SimpleLogger6appendIJRA3_KcEEERKS_DpOT_
FNDA:1,_ZN12SimpleLoggerC2Ev
FNDA:12,_ZNK12SimpleLogger6appendIJRA2_KcEEERKS_DpOT_
FNDA:16,_ZNK12SimpleLogger12setPrecisionEl
FNDA:1,_ZNK12SimpleLogger6appendIJRfEEERKS_DpOT_
FNDA:4,_ZNK12SimpleLogger3logIJRA16_KcmRA2_S1_RKmRA5_S1_EEERKS_8LogLevelbDpOT_
FNDA:0,_ZNK12SimpleLogger4warnIJNSt7__cxx1112basic_stringIcSt11char_traitsIcESaIcEEEEEERKS_DpOT_
FNDA:16,_ZNK12SimpleLogger4endlEb
FNDA:2,_ZNK12SimpleLogger3outIJNSt7__cxx1112basic_stringIcSt11char_traitsIcESaIcEEEEEERKS_DpOT_
FNDA:1,_ZNK12SimpleLogger6appendIJRA9_KcfEEERKS_DpOT_
FNDA:1,_ZNK12SimpleLogger3logIJRA12_KcEEERKS_8LogLevelbDpOT_
FNDA:2,_ZNK12SimpleLogger6appendIJRA12_KcEEERKS_DpOT_
FNF:23
FNH:22
DA:25,53
DA:26,53
DA:27,53
DA:48,9
DA:50,9
DA:51,9
DA:52,9
DA:53,9
DA:55,9
DA:56,9
DA:57,9
DA:58,9
DA:59,0
DA:60,0
DA:61,0
DA:62,0
DA:63,0
DA:64,0
DA:65,0
DA:66,0
DA:67,0
DA:68,0
DA:69,0
DA:70,0
DA:73,9
DA:74,9
DA:75,9
DA:76,9
DA:77,4
DA:80,0
DA:81,0
DA:82,0
DA:83,0
DA:87,18
DA:102,241
DA:103,241
DA:104,241
DA:105,241
DA:138,5
DA:139,5
DA:140,5
DA:141,5
DA:142,5
DA:176,4
DA:177,4
DA:192,0
DA:193,0
DA:243,16
DA:244,16
DA:245,0
DA:246,0
DA:248,16
DA:249,16
DA:251,16
DA:260,16
DA:261,16
DA:262,16
DA:270,15
DA:271,15
DA:272,15
DA:276,1
LF:61
LH:41
end_of_record
TN:
SF:/home/runner/work/SMLP/SMLP/libs/libsmlp/include/Testing.h
FN:32,_ZN7TestingC2ESt10shared_ptrI7NetworkES0_I14DataFileParserE
FN:114,_ZNK7Testing17getTestingResultsEv
FNDA:4,_ZN7TestingC2ESt10shared_ptrI7NetworkES0_I14DataFileParserE
FNDA:5,_ZNK7Testing17getTestingResultsEv
FNF:2
FNH:2
DA:32,4
DA:34,4
DA:35,4
DA:114,5
DA:115,5
LF:5
LH:5
end_of_record
TN:
SF:/home/runner/work/SMLP/SMLP/libs/libsmlp/include/TestingResult.h
FN:93,_ZNK13TestingResult11getProgressEv
FNDA:1,_ZNK13TestingResult11getProgressEv
FNF:1
FNH:1
DA:93,1
DA:94,1
LF:2
LH:2
end_of_record
TN:
SF:/home/runner/work/SMLP/SMLP/libs/libsmlp/include/Training.h
FN:64,_ZN8TrainingC2ESt10shared_ptrI7NetworkERKNSt7__cxx1112basic_stringIcSt11char_traitsIcESaIcEEE
FN:105,_ZNK8Training13getFileParserEv
FN:120,_ZN8Training13createTestingEv
FN:129,_ZNK8Training10getTestingEv
FNDA:8,_ZN8TrainingC2ESt10shared_ptrI7NetworkERKNSt7__cxx1112basic_stringIcSt11char_traitsIcESaIcEEE
FNDA:1,_ZNK8Training10getTestingEv
FNDA:7,_ZNK8Training13getFileParserEv
FNDA:1,_ZN8Training13createTestingEv
FNF:4
FNH:4
DA:64,8
DA:65,8
DA:66,8
DA:105,7
DA:120,1
DA:121,1
DA:122,1
DA:129,1
LF:8
LH:8
end_of_record
TN:
SF:/home/runner/work/SMLP/SMLP/libs/libsmlp/include/exception/FileParserException.h
FN:12,_ZN19FileParserExceptionC2ERKNSt7__cxx1112basic_stringIcSt11char_traitsIcESaIcEEE
FN:14,_ZNK19FileParserException4whatEv
FNDA:4,_ZNK19FileParserException4whatEv
FNDA:4,_ZN19FileParserExceptionC2ERKNSt7__cxx1112basic_stringIcSt11char_traitsIcESaIcEEE
FNF:2
FNH:2
DA:12,4
DA:13,4
DA:14,4
LF:3
LH:3
end_of_record
TN:
SF:/home/runner/work/SMLP/SMLP/libs/libsmlp/include/exception/ImportExportException.h
FN:11,_ZN21ImportExportExceptionC2ERKNSt7__cxx1112basic_stringIcSt11char_traitsIcESaIcEEE
FN:13,_ZNK21ImportExportException4whatEv
FNDA:1,_ZN21ImportExportExceptionC2ERKNSt7__cxx1112basic_stringIcSt11char_traitsIcESaIcEEE
FNDA:1,_ZNK21ImportExportException4whatEv
FNF:2
FNH:2
DA:11,1
DA:12,1
DA:13,1
LF:3
LH:3
end_of_record
TN:
SF:/home/runner/work/SMLP/SMLP/libs/libsmlp/include/exception/NetworkException.h
FN:12,_ZN16NetworkExceptionC2ERKNSt7__cxx1112basic_stringIcSt11char_traitsIcESaIcEEE
FN:13,_ZNK16NetworkException4whatEv
FNDA:1,_ZNK16NetworkException4whatEv
FNDA:1,_ZN16NetworkExceptionC2ERKNSt7__cxx1112basic_stringIcSt11char_traitsIcESaIcEEE
FNF:2
FNH:2
DA:12,1
DA:13,1
LF:2
LH:2
end_of_record
TN:
SF:/home/runner/work/SMLP/SMLP/libs/libsmlp/include/exception/PredictException.h
FN:12,_ZN16PredictExceptionC2ERKNSt7__cxx1112basic_stringIcSt11char_traitsIcESaIcEEE
FN:13,_ZNK16PredictException4whatEv
FNDA:1,_ZNK16PredictException4whatEv
FNDA:1,_ZN16PredictExceptionC2ERKNSt7__cxx1112basic_stringIcSt11char_traitsIcESaIcEEE
FNF:2
FNH:2
DA:12,1
DA:13,1
LF:2
LH:2
end_of_record
TN:
SF:/home/runner/work/SMLP/SMLP/libs/libsmlp/include/exception/SimpleConfigException.h
FN:11,_ZN21SimpleConfigExceptionC2ERKNSt7__cxx1112basic_stringIcSt11char_traitsIcESaIcEEE
FN:13,_ZNK21SimpleConfigException4whatEv
FNDA:1,_ZNK21SimpleConfigException4whatEv
FNDA:1,_ZN21SimpleConfigExceptionC2ERKNSt7__cxx1112basic_stringIcSt11char_traitsIcESaIcEEE
FNF:2
FNH:2
DA:11,1
DA:12,1
DA:13,1
LF:3
LH:3
end_of_record
TN:
SF:/home/runner/work/SMLP/SMLP/libs/libsmlp/include/exception/SimpleLangException.h
FN:11,_ZN19SimpleLangExceptionC2ERKNSt7__cxx1112basic_stringIcSt11char_traitsIcESaIcEEE
FN:13,_ZNK19SimpleLangException4whatEv
FNDA:1,_ZNK19SimpleLangException4whatEv
FNDA:1,_ZN19SimpleLangExceptionC2ERKNSt7__cxx1112basic_stringIcSt11char_traitsIcESaIcEEE
FNF:2
FNH:2
DA:11,1
DA:12,1
DA:13,1
LF:3
LH:3
end_of_record
TN:
SF:/home/runner/work/SMLP/SMLP/libs/libsmlp/include/exception/TestingException.h
FN:11,_ZN16TestingExceptionC2ERKNSt7__cxx1112basic_stringIcSt11char_traitsIcESaIcEEE
FN:12,_ZNK16TestingException4whatEv
FNDA:1,_ZN16TestingExceptionC2ERKNSt7__cxx1112basic_stringIcSt11char_traitsIcESaIcEEE
FNDA:1,_ZNK16TestingException4whatEv
FNF:2
FNH:2
DA:11,1
DA:12,1
LF:2
LH:2
end_of_record
TN:
SF:/home/runner/work/SMLP/SMLP/libs/libsmlp/include/exception/TrainingException.h
FN:11,_ZN17TrainingExceptionC2ERKNSt7__cxx1112basic_stringIcSt11char_traitsIcESaIcEEE
FN:12,_ZNK17TrainingException4whatEv
FNDA:2,_ZN17TrainingExceptionC2ERKNSt7__cxx1112basic_stringIcSt11char_traitsIcESaIcEEE
FNDA:2,_ZNK17TrainingException4whatEv
FNF:2
FNH:2
DA:11,2
DA:12,2
LF:2
LH:2
end_of_record
TN:
SF:/home/runner/work/SMLP/SMLP/libs/libsmlp/src/DataFileParser.cpp
FN:10,_ZN14DataFileParserD0Ev
FN:10,_ZN14DataFileParserD2Ev
FN:16,_ZN14DataFileParser8openFileERKNSt7__cxx1112basic_stringIcSt11char_traitsIcESaIcEEE
FN:35,_ZN14DataFileParser9closeFileEv
FN:41,_ZN14DataFileParser8resetPosEv
FN:48,_ZN14DataFileParser11processLineERK17NetworkParametersRK13AppParametersRKNSt7__cxx1112basic_stringIcSt11char_traitsIcESaIcEEE
FN:73,_ZN14DataFileParser11getNextLineERNSt7__cxx1112basic_stringIcSt11char_traitsIcESaIcEEERK13AppParameters
FN:90,_ZNK14DataFileParser9parseLineERKNSt7__cxx1112basic_stringIcSt11char_traitsIcESaIcEEERSt6vectorIS8_IN3Csv13CellReferenceESaISA_EESaISC_EE
FN:105,_ZNK14DataFileParser15validateColumnsERKSt6vectorIS0_IN3Csv13CellReferenceESaIS2_EESaIS4_EERK17NetworkParametersRK13AppParameters
FN:136,_ZNK14DataFileParser14processColumnsERKSt6vectorIS0_IN3Csv13CellReferenceESaIS2_EESaIS4_EERK17NetworkParametersRK13AppParameters
FN:160,_ZNK14DataFileParser16processInputOnlyERKSt6vectorIS0_IN3Csv13CellReferenceESaIS2_EESaIS4_EEm
FN:164,_ZZNK14DataFileParser16processInputOnlyERKSt6vectorIS0_IN3Csv13CellReferenceESaIS2_EESaIS4_EEmENKUlT_E_clIS4_EEDaS9_
FN:172,_ZNK14DataFileParser17processInputFirstERKSt6vectorIS0_IN3Csv13CellReferenceESaIS2_EESaIS4_EEmm
FN:177,_ZZNK14DataFileParser17processInputFirstERKSt6vectorIS0_IN3Csv13CellReferenceESaIS2_EESaIS4_EEmmENKUlT_E_clIS4_EEDaS9_
FN:187,_ZNK14DataFileParser18processOutputFirstERKSt6vectorIS0_IN3Csv13CellReferenceESaIS2_EESaIS4_EEmm
FN:192,_ZZNK14DataFileParser18processOutputFirstERKSt6vectorIS0_IN3Csv13CellReferenceESaIS2_EESaIS4_EEmmENKUlT_E_clIS4_EEDaS9_
FNDA:20,_ZN14DataFileParser9closeFileEv
FNDA:50,_ZNK14DataFileParser18processOutputFirstERKSt6vectorIS0_IN3Csv13CellReferenceESaIS2_EESaIS4_EEmm
FNDA:53,_ZNK14DataFileParser9parseLineERKNSt7__cxx1112basic_stringIcSt11char_traitsIcESaIcEEERSt6vectorIS8_IN3Csv13CellReferenceESaISA_EESaISC_EE
FNDA:1,_ZNK14DataFileParser17processInputFirstERKSt6vectorIS0_IN3Csv13CellReferenceESaIS2_EESaIS4_EEmm
FNDA:0,_ZN14DataFileParserD0Ev
FNDA:1030,_ZZNK14DataFileParser18processOutputFirstERKSt6vectorIS0_IN3Csv13CellReferenceESaIS2_EESaIS4_EEmmENKUlT_E_clIS4_EEDaS9_
FNDA:2,_ZNK14DataFileParser16processInputOnlyERKSt6vectorIS0_IN3Csv13CellReferenceESaIS2_EESaIS4_EEm
FNDA:31,_ZN14DataFileParserD2Ev
FNDA:56,_ZN14DataFileParser11processLineERK17NetworkParametersRK13AppParametersRKNSt7__cxx1112basic_stringIcSt11char_traitsIcESaIcEEE
FNDA:21,_ZZNK14DataFileParser17processInputFirstERKSt6vectorIS0_IN3Csv13CellReferenceESaIS2_EESaIS4_EEmmENKUlT_E_clIS4_EEDaS9_
FNDA:52,_ZN14DataFileParser11getNextLineERNSt7__cxx1112basic_stringIcSt11char_traitsIcESaIcEEERK13AppParameters
FNDA:51,_ZNK14DataFileParser14processColumnsERKSt6vectorIS0_IN3Csv13CellReferenceESaIS2_EESaIS4_EERK17NetworkParametersRK13AppParameters
FNDA:40,_ZZNK14DataFileParser16processInputOnlyERKSt6vectorIS0_IN3Csv13CellReferenceESaIS2_EESaIS4_EEmENKUlT_E_clIS4_EEDaS9_
FNDA:5,_ZN14DataFileParser8resetPosEv
FNDA:22,_ZN14DataFileParser8openFileERKNSt7__cxx1112basic_stringIcSt11char_traitsIcESaIcEEE
FNDA:53,_ZNK14DataFileParser15validateColumnsERKSt6vectorIS0_IN3Csv13CellReferenceESaIS2_EESaIS4_EERK17NetworkParametersRK13AppParameters
FNF:16
FNH:15
DA:10,31
DA:11,31
DA:12,2
DA:14,31
DA:16,22
DA:17,22
DA:18,0
DA:19,0
DA:21,0
DA:24,22
DA:25,4
DA:27,22
DA:28,22
DA:29,3
DA:30,4
DA:32,21
DA:35,20
DA:36,20
DA:37,19
DA:39,20
DA:41,5
DA:42,5
DA:43,5
DA:44,5
DA:45,5
DA:48,56
DA:52,112
DA:53,56
DA:54,56
DA:55,52
DA:56,3
DA:59,4
DA:62,106
DA:64,53
DA:66,53
DA:68,101
DA:70,50
DA:73,52
DA:76,52
DA:77,0
DA:78,0
DA:79,0
DA:80,0
DA:84,52
DA:85,3
DA:87,49
DA:90,53
DA:94,53
DA:95,53
DA:96,0
DA:97,0
DA:98,0
DA:100,0
DA:101,0
DA:103,53
DA:105,53
DA:109,53
DA:110,0
DA:112,0
DA:115,103
DA:116,50
DA:117,50
DA:118,7
DA:120,1
DA:121,2
DA:122,1
DA:123,7
DA:126,55
DA:127,3
DA:128,7
DA:130,1
DA:131,2
DA:132,8
DA:134,51
DA:136,51
DA:140,51
DA:142,53
DA:143,2
DA:144,2
DA:145,49
DA:146,0
DA:147,0
DA:149,48
DA:150,49
DA:152,2
DA:153,3
DA:155,4
DA:157,50
DA:160,2
DA:163,2
DA:164,40
DA:165,40
DA:167,0
DA:168,2
DA:169,6
DA:172,1
DA:175,2
DA:176,2
DA:177,21
DA:178,21
DA:180,0
DA:181,1
DA:182,0
DA:183,1
DA:184,2
DA:187,50
DA:190,100
DA:191,100
DA:192,1030
DA:193,1030
DA:195,1
DA:196,50
DA:197,0
DA:198,49
DA:199,98
LF:115
LH:95
end_of_record
TN:
SF:/home/runner/work/SMLP/SMLP/libs/libsmlp/src/Predict.cpp
FN:8,_ZNK7Predict7predictEv
FN:16,_ZNK7Predict12processStdinEv
FN:28,_ZNK7Predict11processFileEv
FN:45,_ZNK7Predict12appendValuesERKSt6vectorIfSaIfEEb
FN:48,_ZZNK7Predict12appendValuesERKSt6vectorIfSaIfEEbENKUlRKfE_clES6_
FN:62,_ZNK7Predict10showOutputERKSt6vectorIfSaIfEES4_
FNDA:2,_ZNK7Predict11processFileEv
FNDA:2,_ZNK7Predict7predictEv
FNDA:26,_ZNK7Predict12appendValuesERKSt6vectorIfSaIfEEb
FNDA:0,_ZNK7Predict12processStdinEv
FNDA:15,_ZNK7Predict10showOutputERKSt6vectorIfSaIfEES4_
FNDA:207,_ZZNK7Predict12appendValuesERKSt6vectorIfSaIfEEbENKUlRKfE_clES6_
FNF:6
FNH:5
DA:8,2
DA:9,2
DA:10,0
DA:12,2
DA:14,1
DA:16,0
DA:17,0
DA:18,0
DA:20,0
DA:21,0
DA:22,0
DA:23,0
DA:26,0
DA:28,2
DA:29,2
DA:30,2
DA:32,2
DA:33,13
DA:35,25
DA:36,12
DA:37,22
DA:38,11
DA:40,11
DA:42,1
DA:43,1
DA:45,26
DA:48,207
DA:49,207
DA:52,26
DA:53,26
DA:54,26
DA:55,26
DA:56,223
DA:57,197
DA:60,26
DA:62,15
DA:64,15
DA:65,15
DA:66,15
DA:67,11
DA:68,11
DA:69,11
DA:70,11
DA:71,11
DA:72,11
DA:73,11
DA:74,11
DA:75,1
DA:76,1
DA:77,1
DA:78,1
DA:79,1
DA:80,1
DA:81,1
DA:82,1
DA:83,1
DA:84,1
DA:85,1
DA:86,1
DA:87,1
DA:88,1
DA:89,1
DA:90,1
DA:91,1
DA:92,2
DA:94,14
DA:95,14
LF:67
LH:58
end_of_record
TN:
SF:/home/runner/work/SMLP/SMLP/libs/libsmlp/src/Testing.cpp
FN:11,_ZN7Testing4testERK17NetworkParametersRK13AppParametersmm
FN:21,_ZNK7Testing12testFromFileERK17NetworkParametersRK13AppParametersm
FN:66,_ZNK7Testing13testFromStdinERK17NetworkParametersRK13AppParametersm
FN:86,_ZNK7Testing8testLineERK17NetworkParametersRK13AppParametersRK12RecordResultmRSt6vectorIN13TestingResult11TestResultsESaISB_EE
FNDA:3,_ZNK7Testing12testFromFileERK17NetworkParametersRK13AppParametersm
FNDA:1,_ZNK7Testing13testFromStdinERK17NetworkParametersRK13AppParametersm
FNDA:1,_ZN7Testing4testERK17NetworkParametersRK13AppParametersmm
FNDA:2,_ZNK7Testing8testLineERK17NetworkParametersRK13AppParametersRK12RecordResultmRSt6vectorIN13TestingResult11TestResultsESaISB_EE
FNF:4
FNH:4
DA:11,1
DA:14,1
DA:15,1
DA:17,0
DA:19,1
DA:21,3
DA:24,3
DA:25,2
DA:26,1
DA:27,1
DA:28,1
DA:29,1
DA:31,1
DA:32,1
DA:33,2
DA:37,2
DA:38,0
DA:41,4
DA:42,2
DA:43,2
DA:44,2
DA:45,4
DA:46,2
DA:47,12
DA:48,30
DA:49,10
DA:50,16
DA:53,8
DA:54,8
DA:55,8
DA:56,16
DA:59,2
DA:63,2
DA:64,2
DA:66,1
DA:69,2
DA:70,1
DA:71,1
DA:72,1
DA:74,2
DA:76,3
DA:77,2
DA:79,2
DA:80,2
DA:81,2
DA:83,1
DA:84,1
DA:86,2
DA:90,2
DA:91,0
DA:93,2
DA:94,4
DA:97,2
DA:98,2
DA:100,4
DA:101,4
LF:56
LH:53
end_of_record
TN:
SF:/home/runner/work/SMLP/SMLP/libs/libsmlp/src/TestingResult.cpp
FN:10,_ZN13TestingResult15showResultsLineB5cxx11Eb
FN:24,_ZNK13TestingResult18showResultsVerboseB5cxx11ERKNS_11TestResultsE5EMode
FN:38,_ZN13TestingResult20showDetailledResultsB5cxx11E5EModeb
FN:60,_ZNK13TestingResult19showAccuracyResultsB5cxx11ERKNS_4StatE
FN:73,_ZNK13TestingResult22showConvergenceResultsB5cxx11ERKNS_4StatE
FN:88,_ZN13TestingResult14processResultsERKSt6vectorINS_11TestResultsESaIS1_EE5EModem
FN:106,_ZN13TestingResult9calcStatsEb
FN:133,_ZN13TestingResult11updateStatsERNS_4StatERKNS_11TestResultsEb
FN:148,_ZNK13TestingResult22updateConvergenceStatsERNS_4StatERKNS_11TestResultsE
FN:161,_ZNK13TestingResult21updatePredictionStatsERNS_4StatERKNS_11TestResultsE
FN:174,_ZNK13TestingResult20calculatePercentagesERNS_4StatEb
FNDA:16,_ZN13TestingResult11updateStatsERNS_4StatERKNS_11TestResultsEb
FNDA:4,_ZNK13TestingResult20calculatePercentagesERNS_4StatEb
FNDA:3,_ZN13TestingResult14processResultsERKSt6vectorINS_11TestResultsESaIS1_EE5EModem
FNDA:1,_ZNK13TestingResult19showAccuracyResultsB5cxx11ERKNS_4StatE
FNDA:1,_ZNK13TestingResult22showConvergenceResultsB5cxx11ERKNS_4StatE
FNDA:0,_ZNK13TestingResult18showResultsVerboseB5cxx11ERKNS_11TestResultsE5EMode
FNDA:16,_ZNK13TestingResult21updatePredictionStatsERNS_4StatERKNS_11TestResultsE
FNDA:4,_ZN13TestingResult9calcStatsEb
FNDA:12,_ZNK13TestingResult22updateConvergenceStatsERNS_4StatERKNS_11TestResultsE
FNDA:1,_ZN13TestingResult20showDetailledResultsB5cxx11E5EModeb
FNDA:2,_ZN13TestingResult15showResultsLineB5cxx11Eb
FNF:11
FNH:10
DA:10,2
DA:11,2
DA:12,4
DA:14,2
DA:15,2
DA:16,2
DA:17,2
DA:18,2
DA:21,4
DA:24,0
DA:26,0
DA:27,0
DA:28,0
DA:29,0
DA:30,0
DA:31,0
DA:33,0
DA:35,0
DA:38,1
DA:39,1
DA:40,2
DA:42,1
DA:44,1
DA:45,0
DA:46,0
DA:48,0
DA:51,1
DA:53,1
DA:54,1
DA:56,2
DA:60,1
DA:61,2
DA:63,1
DA:64,1
DA:65,1
DA:66,1
DA:67,1
DA:68,1
DA:69,2
DA:73,1
DA:74,2
DA:76,1
DA:77,1
DA:78,1
DA:79,1
DA:80,1
DA:81,1
DA:82,1
DA:83,1
DA:84,1
DA:85,2
DA:88,3
DA:91,3
DA:93,13
DA:94,10
DA:95,6
DA:97,4
DA:102,3
DA:103,3
DA:104,3
DA:106,4
DA:107,4
DA:108,4
DA:109,20
DA:110,16
DA:111,16
DA:115,4
DA:116,4
DA:117,4
DA:118,4
DA:120,4
DA:121,0
DA:124,20
DA:125,16
DA:128,4
DA:130,4
DA:133,16
DA:135,16
DA:136,8
DA:138,8
DA:141,16
DA:142,12
DA:145,16
DA:146,16
DA:148,12
DA:150,18
DA:151,6
DA:152,6
DA:153,6
DA:154,12
DA:155,6
DA:156,0
DA:157,0
DA:159,12
DA:161,16
DA:163,16
DA:164,0
DA:166,16
DA:167,0
DA:169,16
DA:170,0
DA:172,16
DA:174,4
DA:175,4
DA:176,4
DA:177,4
DA:178,4
DA:179,4
DA:180,4
DA:181,4
DA:182,4
DA:183,4
DA:184,4
DA:185,4
DA:186,4
DA:187,4
DA:189,4
LF:117
LH:99
end_of_record
TN:
SF:/home/runner/work/SMLP/SMLP/libs/libsmlp/src/Training.cpp
FN:13,_ZN8Training5trainERK17NetworkParametersRK13AppParameters
FN:22,_ZN8Training14trainFromStdinERK17NetworkParametersRK13AppParameters
FN:44,_ZN8Training13trainFromFileERK17NetworkParametersRK13AppParameters
FN:88,_ZNK8Training16processInputLineERK17NetworkParametersRK13AppParametersRKNSt7__cxx1112basic_stringIcSt11char_traitsIcESaIcEEE
FNDA:24,_ZNK8Training16processInputLineERK17NetworkParametersRK13AppParametersRKNSt7__cxx1112basic_stringIcSt11char_traitsIcESaIcEEE
FNDA:1,_ZN8Training14trainFromStdinERK17NetworkParametersRK13AppParameters
FNDA:6,_ZN8Training5trainERK17NetworkParametersRK13AppParameters
FNDA:5,_ZN8Training13trainFromFileERK17NetworkParametersRK13AppParameters
FNF:4
FNH:4
DA:13,6
DA:15,6
DA:16,1
DA:18,5
DA:20,4
DA:22,1
DA:24,1
DA:25,1
DA:26,0
DA:28,1
DA:29,1
DA:30,2
DA:31,6
DA:32,2
DA:33,3
DA:34,2
DA:35,2
DA:37,1
DA:38,0
DA:39,0
DA:40,0
DA:42,1
DA:44,5
DA:46,5
DA:47,5
DA:48,5
DA:49,5
DA:50,5
DA:52,5
DA:53,2
DA:54,4
DA:56,3
DA:57,1
DA:59,3
DA:60,3
DA:61,7
DA:62,0
DA:63,4
DA:64,4
DA:65,26
DA:66,22
DA:68,4
DA:69,2
DA:70,2
DA:71,4
DA:72,2
DA:74,2
DA:77,3
DA:78,3
DA:80,3
DA:81,3
DA:82,3
DA:83,2
DA:84,1
DA:86,3
DA:88,24
DA:92,48
DA:93,24
DA:94,24
DA:95,24
DA:96,24
DA:98,24
LF:62
LH:57
end_of_record
